
Debug/Exe/km0_image/km0_application.axf:     file format elf32-littlearm


Disassembly of section A3 rw:

00083000 <IMAGE2$$Base>:
   83000:	0c00e28d 	.word	0x0c00e28d
	...

0008300c <RAM_IMG2_VALID_PATTEN>:
   8300c:	574b5452 ff006e69 00010100 01018195     RTKWin..........
   8301c:	00000000                                ....

00083020 <?Veneer 0 (3) for ipc_send_message>:
   83020:	b408      	push	{r3}
   83022:	4b02      	ldr	r3, [pc, #8]	; (8302c <?Veneer 0 (3) for ipc_send_message+0xc>)
   83024:	469c      	mov	ip, r3
   83026:	bc08      	pop	{r3}
   83028:	4760      	bx	ip
   8302a:	46c0      	nop			; (mov r8, r8)
   8302c:	0c00211d 	.word	0x0c00211d

00083030 <?Veneer 1 (3) for km4_status_on>:
   83030:	b408      	push	{r3}
   83032:	4b02      	ldr	r3, [pc, #8]	; (8303c <?Veneer 1 (3) for km4_status_on+0xc>)
   83034:	469c      	mov	ip, r3
   83036:	bc08      	pop	{r3}
   83038:	4760      	bx	ip
   8303a:	46c0      	nop			; (mov r8, r8)
   8303c:	0c001c41 	.word	0x0c001c41

00083040 <?Veneer 2 (3) for xTaskGetSchedulerState>:
   83040:	b408      	push	{r3}
   83042:	4b02      	ldr	r3, [pc, #8]	; (8304c <?Veneer 2 (3) for xTaskGetSchedulerState+0xc>)
   83044:	469c      	mov	ip, r3
   83046:	bc08      	pop	{r3}
   83048:	4760      	bx	ip
   8304a:	46c0      	nop			; (mov r8, r8)
   8304c:	0c000703 	.word	0x0c000703

00083050 <?Veneer 3 (3) for xTaskIncrementTick>:
   83050:	b408      	push	{r3}
   83052:	4b02      	ldr	r3, [pc, #8]	; (8305c <?Veneer 3 (3) for xTaskIncrementTick+0xc>)
   83054:	469c      	mov	ip, r3
   83056:	bc08      	pop	{r3}
   83058:	4760      	bx	ip
   8305a:	46c0      	nop			; (mov r8, r8)
   8305c:	0c000449 	.word	0x0c000449

00083060 <FLASH_Write_IPC_Int>:
   83060:	f3ef 8010 	mrs	r0, PRIMASK
   83064:	2800      	cmp	r0, #0
   83066:	d104      	bne.n	83072 <FLASH_Write_IPC_Int+0x12>
   83068:	b672      	cpsid	i
   8306a:	bf20      	wfe
   8306c:	bf20      	wfe
   8306e:	b662      	cpsie	i
   83070:	4770      	bx	lr
   83072:	bf20      	wfe
   83074:	bf20      	wfe
   83076:	4770      	bx	lr

00083078 <FLASH_Write_Lock>:
   83078:	b510      	push	{r4, lr}
   8307a:	f77f fffa 	bl	3072 <IPC_INTGet+0x3>
   8307e:	b672      	cpsid	i
   83080:	4c25      	ldr	r4, [pc, #148]	; (83118 <.image2.ram.text_18>)
   83082:	4926      	ldr	r1, [pc, #152]	; (8311c <.image2.ram.text_19>)
   83084:	680a      	ldr	r2, [r1, #0]
   83086:	6022      	str	r2, [r4, #0]
   83088:	2200      	movs	r2, #0
   8308a:	600a      	str	r2, [r1, #0]
   8308c:	2801      	cmp	r0, #1
   8308e:	d10b      	bne.n	830a8 <FLASH_Write_Lock+0x30>
   83090:	2100      	movs	r1, #0
   83092:	2002      	movs	r0, #2
   83094:	f7ff ffc4 	bl	83020 <?Veneer 0 (3) for ipc_send_message>
   83098:	4821      	ldr	r0, [pc, #132]	; (83120 <.image2.ram.text_20>)
   8309a:	6800      	ldr	r0, [r0, #0]
   8309c:	06c0      	lsls	r0, r0, #27
   8309e:	d5fb      	bpl.n	83098 <FLASH_Write_Lock+0x20>
   830a0:	f780 fbf0 	bl	3884 <SYSTIMER_Init+0x4b>
   830a4:	6060      	str	r0, [r4, #4]
   830a6:	bd10      	pop	{r4, pc}
   830a8:	f7ff ffc2 	bl	83030 <?Veneer 1 (3) for km4_status_on>
   830ac:	2800      	cmp	r0, #0
   830ae:	d0f7      	beq.n	830a0 <FLASH_Write_Lock+0x28>
   830b0:	2100      	movs	r1, #0
   830b2:	2002      	movs	r0, #2
   830b4:	f7ff ffb4 	bl	83020 <?Veneer 0 (3) for ipc_send_message>
   830b8:	481a      	ldr	r0, [pc, #104]	; (83124 <.image2.ram.text_21>)
   830ba:	6800      	ldr	r0, [r0, #0]
   830bc:	07c0      	lsls	r0, r0, #31
   830be:	d5fb      	bpl.n	830b8 <FLASH_Write_Lock+0x40>
   830c0:	e7ee      	b.n	830a0 <FLASH_Write_Lock+0x28>
	...

000830c4 <FLASH_Write_Unlock>:
   830c4:	b5f8      	push	{r3, r4, r5, r6, r7, lr}
   830c6:	f77f ffd4 	bl	3072 <IPC_INTGet+0x3>
   830ca:	0005      	movs	r5, r0
   830cc:	4f12      	ldr	r7, [pc, #72]	; (83118 <.image2.ram.text_18>)
   830ce:	f7ff ffb7 	bl	83040 <?Veneer 2 (3) for xTaskGetSchedulerState>
   830d2:	2801      	cmp	r0, #1
   830d4:	d00a      	beq.n	830ec <FLASH_Write_Unlock+0x28>
   830d6:	6878      	ldr	r0, [r7, #4]
   830d8:	f780 fbde 	bl	3898 <SYSTIMER_TickGet+0x13>
   830dc:	2600      	movs	r6, #0
   830de:	0004      	movs	r4, r0
   830e0:	e002      	b.n	830e8 <FLASH_Write_Unlock+0x24>
   830e2:	f7ff ffb5 	bl	83050 <?Veneer 3 (3) for xTaskIncrementTick>
   830e6:	1c76      	adds	r6, r6, #1
   830e8:	42a6      	cmp	r6, r4
   830ea:	d3fa      	bcc.n	830e2 <FLASH_Write_Unlock+0x1e>
   830ec:	bf40      	sev
   830ee:	2d01      	cmp	r5, #1
   830f0:	d108      	bne.n	83104 <FLASH_Write_Unlock+0x40>
   830f2:	480b      	ldr	r0, [pc, #44]	; (83120 <.image2.ram.text_20>)
   830f4:	6800      	ldr	r0, [r0, #0]
   830f6:	06c0      	lsls	r0, r0, #27
   830f8:	d4fb      	bmi.n	830f2 <FLASH_Write_Unlock+0x2e>
   830fa:	6838      	ldr	r0, [r7, #0]
   830fc:	4907      	ldr	r1, [pc, #28]	; (8311c <.image2.ram.text_19>)
   830fe:	6008      	str	r0, [r1, #0]
   83100:	b662      	cpsie	i
   83102:	bdf1      	pop	{r0, r4, r5, r6, r7, pc}
   83104:	f7ff ff94 	bl	83030 <?Veneer 1 (3) for km4_status_on>
   83108:	2800      	cmp	r0, #0
   8310a:	d0f6      	beq.n	830fa <FLASH_Write_Unlock+0x36>
   8310c:	4805      	ldr	r0, [pc, #20]	; (83124 <.image2.ram.text_21>)
   8310e:	6800      	ldr	r0, [r0, #0]
   83110:	07c0      	lsls	r0, r0, #31
   83112:	d4fb      	bmi.n	8310c <FLASH_Write_Unlock+0x48>
   83114:	e7f1      	b.n	830fa <FLASH_Write_Unlock+0x36>
	...

00083118 <.image2.ram.text_18>:
   83118:	00089944 	.word	0x00089944

0008311c <.image2.ram.text_19>:
   8311c:	e000e010 	.word	0xe000e010

00083120 <.image2.ram.text_20>:
   83120:	48000204 	.word	0x48000204

00083124 <.image2.ram.text_21>:
   83124:	4000000c 	.word	0x4000000c

00083128 <FLASH_ClockSwitch>:
   83128:	b530      	push	{r4, r5, lr}
   8312a:	b081      	sub	sp, #4
   8312c:	000c      	movs	r4, r1
   8312e:	d005      	beq.n	8313c <FLASH_ClockSwitch+0x14>
   83130:	b672      	cpsid	i
   83132:	4931      	ldr	r1, [pc, #196]	; (831f8 <.image2.ram.text_30>)
   83134:	680a      	ldr	r2, [r1, #0]
   83136:	2301      	movs	r3, #1
   83138:	439a      	bics	r2, r3
   8313a:	600a      	str	r2, [r1, #0]
   8313c:	f240 2100 	movw	r1, #512	; 0x200
   83140:	4288      	cmp	r0, r1
   83142:	d11b      	bne.n	8317c <FLASH_ClockSwitch+0x54>
   83144:	4d2d      	ldr	r5, [pc, #180]	; (831fc <.image2.ram.text_31>)
   83146:	6828      	ldr	r0, [r5, #0]
   83148:	4a2d      	ldr	r2, [pc, #180]	; (83200 <.image2.ram.text_32>)
   8314a:	4002      	ands	r2, r0
   8314c:	4311      	orrs	r1, r2
   8314e:	6029      	str	r1, [r5, #0]
   83150:	200a      	movs	r0, #10
   83152:	f77e f9b6 	bl	14c2 <DelayNop+0xd>
   83156:	68a8      	ldr	r0, [r5, #8]
   83158:	492a      	ldr	r1, [pc, #168]	; (83204 <.image2.ram.text_33>)
   8315a:	4001      	ands	r1, r0
   8315c:	60a9      	str	r1, [r5, #8]
   8315e:	2000      	movs	r0, #0
   83160:	f781 fd2e 	bl	4bc0 <FLASH_CalibrationPhaseIdx+0x17>
   83164:	4828      	ldr	r0, [pc, #160]	; (83208 <.image2.ram.text_34>)
   83166:	6801      	ldr	r1, [r0, #0]
   83168:	2208      	movs	r2, #8
   8316a:	4391      	bics	r1, r2
   8316c:	6001      	str	r1, [r0, #0]
   8316e:	6801      	ldr	r1, [r0, #0]
   83170:	4a26      	ldr	r2, [pc, #152]	; (8320c <.image2.ram.text_35>)
   83172:	400a      	ands	r2, r1
   83174:	6002      	str	r2, [r0, #0]
   83176:	4826      	ldr	r0, [pc, #152]	; (83210 <.image2.ram.text_36>)
   83178:	2101      	movs	r1, #1
   8317a:	e027      	b.n	831cc <FLASH_ClockSwitch+0xa4>
   8317c:	004d      	lsls	r5, r1, #1
   8317e:	42a8      	cmp	r0, r5
   83180:	d128      	bne.n	831d4 <FLASH_ClockSwitch+0xac>
   83182:	4821      	ldr	r0, [pc, #132]	; (83208 <.image2.ram.text_34>)
   83184:	6801      	ldr	r1, [r0, #0]
   83186:	012a      	lsls	r2, r5, #4
   83188:	430a      	orrs	r2, r1
   8318a:	6002      	str	r2, [r0, #0]
   8318c:	6801      	ldr	r1, [r0, #0]
   8318e:	2208      	movs	r2, #8
   83190:	430a      	orrs	r2, r1
   83192:	6002      	str	r2, [r0, #0]
   83194:	2001      	movs	r0, #1
   83196:	f781 fd13 	bl	4bc0 <FLASH_CalibrationPhaseIdx+0x17>
   8319a:	4818      	ldr	r0, [pc, #96]	; (831fc <.image2.ram.text_31>)
   8319c:	6881      	ldr	r1, [r0, #8]
   8319e:	f243 0200 	movw	r2, #12288	; 0x3000
   831a2:	430a      	orrs	r2, r1
   831a4:	6082      	str	r2, [r0, #8]
   831a6:	2114      	movs	r1, #20
   831a8:	220c      	movs	r2, #12
   831aa:	6883      	ldr	r3, [r0, #8]
   831ac:	1e49      	subs	r1, r1, #1
   831ae:	4013      	ands	r3, r2
   831b0:	2b0c      	cmp	r3, #12
   831b2:	d001      	beq.n	831b8 <FLASH_ClockSwitch+0x90>
   831b4:	2900      	cmp	r1, #0
   831b6:	d1f8      	bne.n	831aa <FLASH_ClockSwitch+0x82>
   831b8:	6801      	ldr	r1, [r0, #0]
   831ba:	4a11      	ldr	r2, [pc, #68]	; (83200 <.image2.ram.text_32>)
   831bc:	400a      	ands	r2, r1
   831be:	4315      	orrs	r5, r2
   831c0:	6005      	str	r5, [r0, #0]
   831c2:	200a      	movs	r0, #10
   831c4:	f77e f97d 	bl	14c2 <DelayNop+0xd>
   831c8:	4811      	ldr	r0, [pc, #68]	; (83210 <.image2.ram.text_36>)
   831ca:	7f01      	ldrb	r1, [r0, #28]
   831cc:	7741      	strb	r1, [r0, #29]
   831ce:	7901      	ldrb	r1, [r0, #4]
   831d0:	f77e fd5e 	bl	1c90 <FLASH_SW_CS_Control+0x3f>
   831d4:	b12c      	cbz	r4, 831e2 <FLASH_ClockSwitch+0xba>
   831d6:	4808      	ldr	r0, [pc, #32]	; (831f8 <.image2.ram.text_30>)
   831d8:	6801      	ldr	r1, [r0, #0]
   831da:	2201      	movs	r2, #1
   831dc:	430a      	orrs	r2, r1
   831de:	6002      	str	r2, [r0, #0]
   831e0:	b662      	cpsie	i
   831e2:	b001      	add	sp, #4
   831e4:	bd30      	pop	{r4, r5, pc}
	...

000831e8 <FLASH_Invalidate_Auto_Write>:
   831e8:	2000      	movs	r0, #0
   831ea:	490a      	ldr	r1, [pc, #40]	; (83214 <.image2.ram.text_37>)
   831ec:	6008      	str	r0, [r1, #0]
   831ee:	31ec      	adds	r1, #236	; 0xec
   831f0:	6008      	str	r0, [r1, #0]
   831f2:	6148      	str	r0, [r1, #20]
   831f4:	4770      	bx	lr
	...

000831f8 <.image2.ram.text_30>:
   831f8:	e000e010 	.word	0xe000e010

000831fc <.image2.ram.text_31>:
   831fc:	48000210 	.word	0x48000210

00083200 <.image2.ram.text_32>:
   83200:	fffff9ff 	.word	0xfffff9ff

00083204 <.image2.ram.text_33>:
   83204:	ffffcfff 	.word	0xffffcfff

00083208 <.image2.ram.text_34>:
   83208:	480002c0 	.word	0x480002c0

0008320c <.image2.ram.text_35>:
   8320c:	ffffbfff 	.word	0xffffbfff

00083210 <.image2.ram.text_36>:
   83210:	000801f8 	.word	0x000801f8

00083214 <.image2.ram.text_37>:
   83214:	48080008 	.word	0x48080008

00083218 <_flash_calibration_highspeed>:
   83218:	b5f8      	push	{r3, r4, r5, r6, r7, lr}
   8321a:	b084      	sub	sp, #16
   8321c:	0005      	movs	r5, r0
   8321e:	000e      	movs	r6, r1
   83220:	2000      	movs	r0, #0
   83222:	9000      	str	r0, [sp, #0]
   83224:	9003      	str	r0, [sp, #12]
   83226:	201e      	movs	r0, #30
   83228:	f781 fc5c 	bl	4ae4 <FLASH_ClockDiv+0x9b>
   8322c:	4c8c      	ldr	r4, [pc, #560]	; (83460 <.image2.ram.text_7>)
   8322e:	4669      	mov	r1, sp
   83230:	724d      	strb	r5, [r1, #9]
   83232:	720e      	strb	r6, [r1, #8]
   83234:	2500      	movs	r5, #0
   83236:	9f00      	ldr	r7, [sp, #0]
   83238:	2601      	movs	r6, #1
   8323a:	2001      	movs	r0, #1
   8323c:	9001      	str	r0, [sp, #4]
   8323e:	b2f0      	uxtb	r0, r6
   83240:	9000      	str	r0, [sp, #0]
   83242:	2302      	movs	r3, #2
   83244:	4668      	mov	r0, sp
   83246:	7a02      	ldrb	r2, [r0, #8]
   83248:	7a41      	ldrb	r1, [r0, #9]
   8324a:	0020      	movs	r0, r4
   8324c:	f781 fcd6 	bl	4bfc <FLASH_CalibrationNewCmd+0x3b>
   83250:	b2c0      	uxtb	r0, r0
   83252:	2158      	movs	r1, #88	; 0x58
   83254:	5c61      	ldrb	r1, [r4, r1]
   83256:	b119      	cbz	r1, 83260 <_flash_calibration_highspeed+0x48>
   83258:	2201      	movs	r2, #1
   8325a:	430a      	orrs	r2, r1
   8325c:	2158      	movs	r1, #88	; 0x58
   8325e:	5462      	strb	r2, [r4, r1]
   83260:	4285      	cmp	r5, r0
   83262:	d203      	bcs.n	8326c <_flash_calibration_highspeed+0x54>
   83264:	0005      	movs	r5, r0
   83266:	9603      	str	r6, [sp, #12]
   83268:	2058      	movs	r0, #88	; 0x58
   8326a:	5c27      	ldrb	r7, [r4, r0]
   8326c:	2000      	movs	r0, #0
   8326e:	2158      	movs	r1, #88	; 0x58
   83270:	5460      	strb	r0, [r4, r1]
   83272:	1c76      	adds	r6, r6, #1
   83274:	2e06      	cmp	r6, #6
   83276:	d3e0      	bcc.n	8323a <_flash_calibration_highspeed+0x22>
   83278:	002a      	movs	r2, r5
   8327a:	9d03      	ldr	r5, [sp, #12]
   8327c:	d00b      	beq.n	83296 <_flash_calibration_highspeed+0x7e>
   8327e:	003b      	movs	r3, r7
   83280:	0029      	movs	r1, r5
   83282:	4878      	ldr	r0, [pc, #480]	; (83464 <.image2.ram.text_8>)
   83284:	f77d f8f6 	bl	474 <DiagVSprintf+0x35f>
   83288:	2058      	movs	r0, #88	; 0x58
   8328a:	5427      	strb	r7, [r4, r0]
   8328c:	7725      	strb	r5, [r4, #28]
   8328e:	7f20      	ldrb	r0, [r4, #28]
   83290:	7760      	strb	r0, [r4, #29]
   83292:	2001      	movs	r0, #1
   83294:	e002      	b.n	8329c <_flash_calibration_highspeed+0x84>
   83296:	2001      	movs	r0, #1
   83298:	7760      	strb	r0, [r4, #29]
   8329a:	2000      	movs	r0, #0
   8329c:	b005      	add	sp, #20
   8329e:	bdf0      	pop	{r4, r5, r6, r7, pc}

000832a0 <flash_calibration_highspeed>:
   832a0:	b5fe      	push	{r1, r2, r3, r4, r5, r6, r7, lr}
   832a2:	0007      	movs	r7, r0
   832a4:	2401      	movs	r4, #1
   832a6:	486e      	ldr	r0, [pc, #440]	; (83460 <.image2.ram.text_7>)
   832a8:	7901      	ldrb	r1, [r0, #4]
   832aa:	466a      	mov	r2, sp
   832ac:	7011      	strb	r1, [r2, #0]
   832ae:	3057      	adds	r0, #87	; 0x57
   832b0:	9001      	str	r0, [sp, #4]
   832b2:	2000      	movs	r0, #0
   832b4:	9901      	ldr	r1, [sp, #4]
   832b6:	7008      	strb	r0, [r1, #0]
   832b8:	0038      	movs	r0, r7
   832ba:	f781 fbc5 	bl	4a48 <CPU_ClkGet+0x23>
   832be:	0465      	lsls	r5, r4, #17
   832c0:	4e69      	ldr	r6, [pc, #420]	; (83468 <.image2.ram.text_9>)
   832c2:	0039      	movs	r1, r7
   832c4:	4668      	mov	r0, sp
   832c6:	7800      	ldrb	r0, [r0, #0]
   832c8:	f7ff ffa6 	bl	83218 <_flash_calibration_highspeed>
   832cc:	2801      	cmp	r0, #1
   832ce:	d111      	bne.n	832f4 <flash_calibration_highspeed+0x54>
   832d0:	f781 fc76 	bl	4bc0 <FLASH_CalibrationPhaseIdx+0x17>
   832d4:	9801      	ldr	r0, [sp, #4]
   832d6:	7840      	ldrb	r0, [r0, #1]
   832d8:	f781 fc66 	bl	4ba8 <FLASH_CalibrationPhase+0x8b>
   832dc:	4668      	mov	r0, sp
   832de:	7800      	ldrb	r0, [r0, #0]
   832e0:	f77f f8fe 	bl	24e0 <FLASH_StructInit+0x8f>
   832e4:	6830      	ldr	r0, [r6, #0]
   832e6:	4005      	ands	r5, r0
   832e8:	d012      	beq.n	83310 <flash_calibration_highspeed+0x70>
   832ea:	bf00      	nop
   832ec:	a064      	add	r0, pc, #400	; (adr r0, 83480 <.image2.ram.text_15>)
   832ee:	f77d f8c1 	bl	474 <DiagVSprintf+0x35f>
   832f2:	e00d      	b.n	83310 <flash_calibration_highspeed+0x70>
   832f4:	485d      	ldr	r0, [pc, #372]	; (8346c <.image2.ram.text_10>)
   832f6:	6801      	ldr	r1, [r0, #0]
   832f8:	4a5d      	ldr	r2, [pc, #372]	; (83470 <.image2.ram.text_11>)
   832fa:	400a      	ands	r2, r1
   832fc:	0261      	lsls	r1, r4, #9
   832fe:	4311      	orrs	r1, r2
   83300:	6001      	str	r1, [r0, #0]
   83302:	6830      	ldr	r0, [r6, #0]
   83304:	4005      	ands	r5, r0
   83306:	d002      	beq.n	8330e <flash_calibration_highspeed+0x6e>
   83308:	a063      	add	r0, pc, #396	; (adr r0, 83498 <.image2.ram.text_16>)
   8330a:	f77d f8b3 	bl	474 <DiagVSprintf+0x35f>
   8330e:	2400      	movs	r4, #0
   83310:	0020      	movs	r0, r4
   83312:	bdfe      	pop	{r1, r2, r3, r4, r5, r6, r7, pc}

00083314 <flash_rx_mode_switch>:
   83314:	b5f0      	push	{r4, r5, r6, r7, lr}
   83316:	b085      	sub	sp, #20
   83318:	2101      	movs	r1, #1
   8331a:	9104      	str	r1, [sp, #16]
   8331c:	2100      	movs	r1, #0
   8331e:	466a      	mov	r2, sp
   83320:	7011      	strb	r1, [r2, #0]
   83322:	4f4f      	ldr	r7, [pc, #316]	; (83460 <.image2.ram.text_7>)
   83324:	0039      	movs	r1, r7
   83326:	3157      	adds	r1, #87	; 0x57
   83328:	9101      	str	r1, [sp, #4]
   8332a:	0006      	movs	r6, r0
   8332c:	e00c      	b.n	83348 <flash_rx_mode_switch+0x34>
   8332e:	2057      	movs	r0, #87	; 0x57
   83330:	5c38      	ldrb	r0, [r7, r0]
   83332:	b140      	cbz	r0, 83346 <flash_rx_mode_switch+0x32>
   83334:	484c      	ldr	r0, [pc, #304]	; (83468 <.image2.ram.text_9>)
   83336:	6800      	ldr	r0, [r0, #0]
   83338:	0380      	lsls	r0, r0, #14
   8333a:	d504      	bpl.n	83346 <flash_rx_mode_switch+0x32>
   8333c:	0031      	movs	r1, r6
   8333e:	bf00      	nop
   83340:	a05f      	add	r0, pc, #380	; (adr r0, 834c0 <.image2.ram.text_18>)
   83342:	f77d f897 	bl	474 <DiagVSprintf+0x35f>
   83346:	1c76      	adds	r6, r6, #1
   83348:	2e04      	cmp	r6, #4
   8334a:	dc7a      	bgt.n	83442 <flash_rx_mode_switch+0x12e>
   8334c:	2402      	movs	r4, #2
   8334e:	b966      	cbnz	r6, 8336a <flash_rx_mode_switch+0x56>
   83350:	2001      	movs	r0, #1
   83352:	9901      	ldr	r1, [sp, #4]
   83354:	70c8      	strb	r0, [r1, #3]
   83356:	f640 2010 	movw	r0, #2576	; 0xa10
   8335a:	64b8      	str	r0, [r7, #72]	; 0x48
   8335c:	2020      	movs	r0, #32
   8335e:	5c3d      	ldrb	r5, [r7, r0]
   83360:	1ea8      	subs	r0, r5, #2
   83362:	2120      	movs	r1, #32
   83364:	5478      	strb	r0, [r7, r1]
   83366:	20eb      	movs	r0, #235	; 0xeb
   83368:	e02a      	b.n	833c0 <flash_rx_mode_switch+0xac>
   8336a:	2508      	movs	r5, #8
   8336c:	2e01      	cmp	r6, #1
   8336e:	d109      	bne.n	83384 <flash_rx_mode_switch+0x70>
   83370:	2000      	movs	r0, #0
   83372:	9901      	ldr	r1, [sp, #4]
   83374:	70c8      	strb	r0, [r1, #3]
   83376:	f240 2008 	movw	r0, #520	; 0x208
   8337a:	64b8      	str	r0, [r7, #72]	; 0x48
   8337c:	2120      	movs	r1, #32
   8337e:	547d      	strb	r5, [r7, r1]
   83380:	206b      	movs	r0, #107	; 0x6b
   83382:	e01d      	b.n	833c0 <flash_rx_mode_switch+0xac>
   83384:	2e02      	cmp	r6, #2
   83386:	d10a      	bne.n	8339e <flash_rx_mode_switch+0x8a>
   83388:	2401      	movs	r4, #1
   8338a:	9901      	ldr	r1, [sp, #4]
   8338c:	70cc      	strb	r4, [r1, #3]
   8338e:	f641 2001 	movw	r0, #6657	; 0x1a01
   83392:	6478      	str	r0, [r7, #68]	; 0x44
   83394:	7ffd      	ldrb	r5, [r7, #31]
   83396:	1f28      	subs	r0, r5, #4
   83398:	77f8      	strb	r0, [r7, #31]
   8339a:	20bb      	movs	r0, #187	; 0xbb
   8339c:	e010      	b.n	833c0 <flash_rx_mode_switch+0xac>
   8339e:	2e03      	cmp	r6, #3
   833a0:	d109      	bne.n	833b6 <flash_rx_mode_switch+0xa2>
   833a2:	2000      	movs	r0, #0
   833a4:	9901      	ldr	r1, [sp, #4]
   833a6:	70c8      	strb	r0, [r1, #3]
   833a8:	f240 2002 	movw	r0, #514	; 0x202
   833ac:	6478      	str	r0, [r7, #68]	; 0x44
   833ae:	77fd      	strb	r5, [r7, #31]
   833b0:	2401      	movs	r4, #1
   833b2:	203b      	movs	r0, #59	; 0x3b
   833b4:	e004      	b.n	833c0 <flash_rx_mode_switch+0xac>
   833b6:	2400      	movs	r4, #0
   833b8:	9901      	ldr	r1, [sp, #4]
   833ba:	70cc      	strb	r4, [r1, #3]
   833bc:	7fbd      	ldrb	r5, [r7, #30]
   833be:	2003      	movs	r0, #3
   833c0:	60b8      	str	r0, [r7, #8]
   833c2:	6838      	ldr	r0, [r7, #0]
   833c4:	2803      	cmp	r0, #3
   833c6:	d111      	bne.n	833ec <flash_rx_mode_switch+0xd8>
   833c8:	466a      	mov	r2, sp
   833ca:	2101      	movs	r1, #1
   833cc:	2085      	movs	r0, #133	; 0x85
   833ce:	f77e fca5 	bl	1d1c <FLASH_SetSpiMode+0x8b>
   833d2:	4668      	mov	r0, sp
   833d4:	7800      	ldrb	r0, [r0, #0]
   833d6:	0700      	lsls	r0, r0, #28
   833d8:	0f00      	lsrs	r0, r0, #28
   833da:	0129      	lsls	r1, r5, #4
   833dc:	4301      	orrs	r1, r0
   833de:	4668      	mov	r0, sp
   833e0:	7001      	strb	r1, [r0, #0]
   833e2:	466a      	mov	r2, sp
   833e4:	2101      	movs	r1, #1
   833e6:	2081      	movs	r0, #129	; 0x81
   833e8:	f77e fe9e 	bl	2128 <FLASH_TxData12B+0xdf>
   833ec:	2001      	movs	r0, #1
   833ee:	7778      	strb	r0, [r7, #29]
   833f0:	0020      	movs	r0, r4
   833f2:	f77f f875 	bl	24e0 <FLASH_StructInit+0x8f>
   833f6:	481f      	ldr	r0, [pc, #124]	; (83474 <.image2.ram.text_12>)
   833f8:	6800      	ldr	r0, [r0, #0]
   833fa:	03c0      	lsls	r0, r0, #15
   833fc:	d509      	bpl.n	83412 <flash_rx_mode_switch+0xfe>
   833fe:	f3bf 8f4f 	dsb	sy
   83402:	2080      	movs	r0, #128	; 0x80
   83404:	0500      	lsls	r0, r0, #20
   83406:	491c      	ldr	r1, [pc, #112]	; (83478 <.image2.ram.text_13>)
   83408:	6008      	str	r0, [r1, #0]
   8340a:	f3bf 8f4f 	dsb	sy
   8340e:	f3bf 8f6f 	isb	sy
   83412:	2080      	movs	r0, #128	; 0x80
   83414:	0500      	lsls	r0, r0, #20
   83416:	6800      	ldr	r0, [r0, #0]
   83418:	9002      	str	r0, [sp, #8]
   8341a:	2080      	movs	r0, #128	; 0x80
   8341c:	0500      	lsls	r0, r0, #20
   8341e:	6840      	ldr	r0, [r0, #4]
   83420:	9003      	str	r0, [sp, #12]
   83422:	2208      	movs	r2, #8
   83424:	4915      	ldr	r1, [pc, #84]	; (8347c <.image2.ram.text_14>)
   83426:	a802      	add	r0, sp, #8
   83428:	f783 f88c 	bl	6544 <_memchr+0x7f>
   8342c:	2800      	cmp	r0, #0
   8342e:	d000      	beq.n	83432 <flash_rx_mode_switch+0x11e>
   83430:	e77d      	b.n	8332e <flash_rx_mode_switch+0x1a>
   83432:	480d      	ldr	r0, [pc, #52]	; (83468 <.image2.ram.text_9>)
   83434:	6800      	ldr	r0, [r0, #0]
   83436:	0380      	lsls	r0, r0, #14
   83438:	d503      	bpl.n	83442 <flash_rx_mode_switch+0x12e>
   8343a:	0031      	movs	r1, r6
   8343c:	a01c      	add	r0, pc, #112	; (adr r0, 834b0 <.image2.ram.text_17>)
   8343e:	f77d f819 	bl	474 <DiagVSprintf+0x35f>
   83442:	2e05      	cmp	r6, #5
   83444:	d109      	bne.n	8345a <flash_rx_mode_switch+0x146>
   83446:	4808      	ldr	r0, [pc, #32]	; (83468 <.image2.ram.text_9>)
   83448:	6800      	ldr	r0, [r0, #0]
   8344a:	0380      	lsls	r0, r0, #14
   8344c:	d503      	bpl.n	83456 <flash_rx_mode_switch+0x142>
   8344e:	bf00      	nop
   83450:	a020      	add	r0, pc, #128	; (adr r0, 834d4 <.image2.ram.text_19>)
   83452:	f77d f80f 	bl	474 <DiagVSprintf+0x35f>
   83456:	2000      	movs	r0, #0
   83458:	9004      	str	r0, [sp, #16]
   8345a:	9804      	ldr	r0, [sp, #16]
   8345c:	b005      	add	sp, #20
   8345e:	bdf0      	pop	{r4, r5, r6, r7, pc}

00083460 <.image2.ram.text_7>:
   83460:	000801f8 	.word	0x000801f8

00083464 <.image2.ram.text_8>:
   83464:	00083f8c 	.word	0x00083f8c

00083468 <.image2.ram.text_9>:
   83468:	000801cc 	.word	0x000801cc

0008346c <.image2.ram.text_10>:
   8346c:	48000210 	.word	0x48000210

00083470 <.image2.ram.text_11>:
   83470:	fffff9ff 	.word	0xfffff9ff

00083474 <.image2.ram.text_12>:
   83474:	e000ed14 	.word	0xe000ed14

00083478 <.image2.ram.text_13>:
   83478:	e000ef5c 	.word	0xe000ef5c

0008347c <.image2.ram.text_14>:
   8347c:	00020064 	.word	0x00020064

00083480 <.image2.ram.text_15>:
   83480:	414c460d 	.word	0x414c460d
   83484:	43204853 	.word	0x43204853
   83488:	42494c41 	.word	0x42494c41
   8348c:	57454e5b 	.word	0x57454e5b
   83490:	5d4b4f20 	.word	0x5d4b4f20
   83494:	0000000a 	.word	0x0000000a

00083498 <.image2.ram.text_16>:
   83498:	414c460d 	.word	0x414c460d
   8349c:	43204853 	.word	0x43204853
   834a0:	42494c41 	.word	0x42494c41
   834a4:	57454e5b 	.word	0x57454e5b
   834a8:	49414620 	.word	0x49414620
   834ac:	000a5d4c 	.word	0x000a5d4c

000834b0 <.image2.ram.text_17>:
   834b0:	6165720d 	.word	0x6165720d
   834b4:	6f6d5f64 	.word	0x6f6d5f64
   834b8:	253a6564 	.word	0x253a6564
   834bc:	00000a64 	.word	0x00000a64

000834c0 <.image2.ram.text_18>:
   834c0:	6165720d 	.word	0x6165720d
   834c4:	6f6d2064 	.word	0x6f6d2064
   834c8:	25206564 	.word	0x25206564
   834cc:	61662064 	.word	0x61662064
   834d0:	000a6c69 	.word	0x000a6c69

000834d4 <.image2.ram.text_19>:
   834d4:	616c460d 	.word	0x616c460d
   834d8:	72206873 	.word	0x72206873
   834dc:	20646165 	.word	0x20646165
   834e0:	65646f6d 	.word	0x65646f6d
   834e4:	69777320 	.word	0x69777320
   834e8:	20686374 	.word	0x20686374
   834ec:	4c494146 	.word	0x4c494146
   834f0:	00000a21 	.word	0x00000a21

000834f4 <?Veneer 5 (3) for km4_flash_highspeed_resume>:
   834f4:	b408      	push	{r3}
   834f6:	4b02      	ldr	r3, [pc, #8]	; (83500 <?Veneer 5 (3) for km4_flash_highspeed_resume+0xc>)
   834f8:	469c      	mov	ip, r3
   834fa:	bc08      	pop	{r3}
   834fc:	4760      	bx	ip
   834fe:	46c0      	nop			; (mov r8, r8)
   83500:	0c001e5f 	.word	0x0c001e5f

00083504 <?Veneer 6 (3) for pmu_exec_sleep_hook_funs>:
   83504:	b408      	push	{r3}
   83506:	4b02      	ldr	r3, [pc, #8]	; (83510 <?Veneer 6 (3) for pmu_exec_sleep_hook_funs+0xc>)
   83508:	469c      	mov	ip, r3
   8350a:	bc08      	pop	{r3}
   8350c:	4760      	bx	ip
   8350e:	46c0      	nop			; (mov r8, r8)
   83510:	0c000eb5 	.word	0x0c000eb5

00083514 <?Veneer 7 (3) for pmu_exec_wakeup_hook_funs>:
   83514:	b408      	push	{r3}
   83516:	4b02      	ldr	r3, [pc, #8]	; (83520 <?Veneer 7 (3) for pmu_exec_wakeup_hook_funs+0xc>)
   83518:	469c      	mov	ip, r3
   8351a:	bc08      	pop	{r3}
   8351c:	4760      	bx	ip
   8351e:	46c0      	nop			; (mov r8, r8)
   83520:	0c000ed7 	.word	0x0c000ed7

00083524 <?Veneer 8 (3) for km4_set_wake_event>:
   83524:	b408      	push	{r3}
   83526:	4b02      	ldr	r3, [pc, #8]	; (83530 <?Veneer 8 (3) for km4_set_wake_event+0xc>)
   83528:	469c      	mov	ip, r3
   8352a:	bc08      	pop	{r3}
   8352c:	4760      	bx	ip
   8352e:	46c0      	nop			; (mov r8, r8)
   83530:	0c001df5 	.word	0x0c001df5

00083534 <?Veneer 9 (3) for SOCPS_DsleepWakeStatusSet>:
   83534:	b408      	push	{r3}
   83536:	4b02      	ldr	r3, [pc, #8]	; (83540 <?Veneer 9 (3) for SOCPS_DsleepWakeStatusSet+0xc>)
   83538:	469c      	mov	ip, r3
   8353a:	bc08      	pop	{r3}
   8353c:	4760      	bx	ip
   8353e:	46c0      	nop			; (mov r8, r8)
   83540:	0c001b61 	.word	0x0c001b61

00083544 <?Veneer 10 (3) for SOCPS_NVICBackup>:
   83544:	b408      	push	{r3}
   83546:	4b02      	ldr	r3, [pc, #8]	; (83550 <?Veneer 10 (3) for SOCPS_NVICBackup+0xc>)
   83548:	469c      	mov	ip, r3
   8354a:	bc08      	pop	{r3}
   8354c:	4760      	bx	ip
   8354e:	46c0      	nop			; (mov r8, r8)
   83550:	0c0017ed 	.word	0x0c0017ed

00083554 <?Veneer 11 (3) for SOCPS_MPUBackup>:
   83554:	b408      	push	{r3}
   83556:	4b02      	ldr	r3, [pc, #8]	; (83560 <?Veneer 11 (3) for SOCPS_MPUBackup+0xc>)
   83558:	469c      	mov	ip, r3
   8355a:	bc08      	pop	{r3}
   8355c:	4760      	bx	ip
   8355e:	46c0      	nop			; (mov r8, r8)
   83560:	0c001895 	.word	0x0c001895

00083564 <?Veneer 12 (3) for SOCPS_OSC2M_Cmd>:
   83564:	b408      	push	{r3}
   83566:	4b02      	ldr	r3, [pc, #8]	; (83570 <?Veneer 12 (3) for SOCPS_OSC2M_Cmd+0xc>)
   83568:	469c      	mov	ip, r3
   8356a:	bc08      	pop	{r3}
   8356c:	4760      	bx	ip
   8356e:	46c0      	nop			; (mov r8, r8)
   83570:	0c00ea75 	.word	0x0c00ea75

00083574 <?Veneer 13 (3) for SOCPS_NVICReFill>:
   83574:	b408      	push	{r3}
   83576:	4b02      	ldr	r3, [pc, #8]	; (83580 <?Veneer 13 (3) for SOCPS_NVICReFill+0xc>)
   83578:	469c      	mov	ip, r3
   8357a:	bc08      	pop	{r3}
   8357c:	4760      	bx	ip
   8357e:	46c0      	nop			; (mov r8, r8)
   83580:	0c001841 	.word	0x0c001841

00083584 <?Veneer 14 (3) for SOCPS_MPUReFill>:
   83584:	b408      	push	{r3}
   83586:	4b02      	ldr	r3, [pc, #8]	; (83590 <?Veneer 14 (3) for SOCPS_MPUReFill+0xc>)
   83588:	469c      	mov	ip, r3
   8358a:	bc08      	pop	{r3}
   8358c:	4760      	bx	ip
   8358e:	46c0      	nop			; (mov r8, r8)
   83590:	0c0018c7 	.word	0x0c0018c7

00083594 <?Veneer 15 (3) for pinmap_wake>:
   83594:	b408      	push	{r3}
   83596:	4b02      	ldr	r3, [pc, #8]	; (835a0 <?Veneer 15 (3) for pinmap_wake+0xc>)
   83598:	469c      	mov	ip, r3
   8359a:	bc08      	pop	{r3}
   8359c:	4760      	bx	ip
   8359e:	46c0      	nop			; (mov r8, r8)
   835a0:	0c00e579 	.word	0x0c00e579

000835a4 <SOCPS_SWR_PFMForce>:
   835a4:	4770      	bx	lr

000835a6 <SOCPS_SNOOZE_Config>:
   835a6:	4a83      	ldr	r2, [pc, #524]	; (837b4 <.image2.ram.text_27>)
   835a8:	6813      	ldr	r3, [r2, #0]
   835aa:	2901      	cmp	r1, #1
   835ac:	d101      	bne.n	835b2 <SOCPS_SNOOZE_Config+0xc>
   835ae:	4318      	orrs	r0, r3
   835b0:	e001      	b.n	835b6 <SOCPS_SNOOZE_Config+0x10>
   835b2:	4383      	bics	r3, r0
   835b4:	0018      	movs	r0, r3
   835b6:	6010      	str	r0, [r2, #0]
   835b8:	4770      	bx	lr

000835ba <SOCPS_AONWakeReason>:
   835ba:	487f      	ldr	r0, [pc, #508]	; (837b8 <.image2.ram.text_29>)
   835bc:	6800      	ldr	r0, [r0, #0]
   835be:	4770      	bx	lr

000835c0 <SOCPS_AONWakeClear>:
   835c0:	497d      	ldr	r1, [pc, #500]	; (837b8 <.image2.ram.text_29>)
   835c2:	6008      	str	r0, [r1, #0]
   835c4:	4770      	bx	lr

000835c6 <SOCPS_WakePinCheck>:
   835c6:	487d      	ldr	r0, [pc, #500]	; (837bc <.image2.ram.text_30>)
   835c8:	6800      	ldr	r0, [r0, #0]
   835ca:	0100      	lsls	r0, r0, #4
   835cc:	0f00      	lsrs	r0, r0, #28
   835ce:	4770      	bx	lr

000835d0 <SOCPS_SetPeripheralClock>:
   835d0:	b430      	push	{r4, r5}
   835d2:	497b      	ldr	r1, [pc, #492]	; (837c0 <.image2.ram.text_31>)
   835d4:	2210      	movs	r2, #16
   835d6:	2300      	movs	r3, #0
   835d8:	43db      	mvns	r3, r3
   835da:	e000      	b.n	835de <SOCPS_SetPeripheralClock+0xe>
   835dc:	3108      	adds	r1, #8
   835de:	680c      	ldr	r4, [r1, #0]
   835e0:	429c      	cmp	r4, r3
   835e2:	d00f      	beq.n	83604 <SOCPS_SetPeripheralClock+0x34>
   835e4:	684d      	ldr	r5, [r1, #4]
   835e6:	2d01      	cmp	r5, #1
   835e8:	d1f8      	bne.n	835dc <SOCPS_SetPeripheralClock+0xc>
   835ea:	4014      	ands	r4, r2
   835ec:	d0f6      	beq.n	835dc <SOCPS_SetPeripheralClock+0xc>
   835ee:	4975      	ldr	r1, [pc, #468]	; (837c4 <.image2.ram.text_32>)
   835f0:	680a      	ldr	r2, [r1, #0]
   835f2:	2801      	cmp	r0, #1
   835f4:	d103      	bne.n	835fe <SOCPS_SetPeripheralClock+0x2e>
   835f6:	2080      	movs	r0, #128	; 0x80
   835f8:	0380      	lsls	r0, r0, #14
   835fa:	4310      	orrs	r0, r2
   835fc:	e001      	b.n	83602 <SOCPS_SetPeripheralClock+0x32>
   835fe:	4872      	ldr	r0, [pc, #456]	; (837c8 <.image2.ram.text_33>)
   83600:	4010      	ands	r0, r2
   83602:	6008      	str	r0, [r1, #0]
   83604:	bc30      	pop	{r4, r5}
   83606:	4770      	bx	lr

00083608 <SOCPS_AONTimer>:
   83608:	b190      	cbz	r0, 83630 <SOCPS_AONTimer+0x28>
   8360a:	4970      	ldr	r1, [pc, #448]	; (837cc <.image2.ram.text_34>)
   8360c:	680a      	ldr	r2, [r1, #0]
   8360e:	2304      	movs	r3, #4
   83610:	439a      	bics	r2, r3
   83612:	600a      	str	r2, [r1, #0]
   83614:	0142      	lsls	r2, r0, #5
   83616:	0843      	lsrs	r3, r0, #1
   83618:	18d2      	adds	r2, r2, r3
   8361a:	0883      	lsrs	r3, r0, #2
   8361c:	18d2      	adds	r2, r2, r3
   8361e:	0983      	lsrs	r3, r0, #6
   83620:	18d2      	adds	r2, r2, r3
   83622:	0a43      	lsrs	r3, r0, #9
   83624:	18d2      	adds	r2, r2, r3
   83626:	0ac0      	lsrs	r0, r0, #11
   83628:	1810      	adds	r0, r2, r0
   8362a:	0080      	lsls	r0, r0, #2
   8362c:	0880      	lsrs	r0, r0, #2
   8362e:	62c8      	str	r0, [r1, #44]	; 0x2c
   83630:	4770      	bx	lr

00083632 <SOCPS_AONTimerCmd>:
   83632:	496c      	ldr	r1, [pc, #432]	; (837e4 <.image2.ram.text_41>)
   83634:	680a      	ldr	r2, [r1, #0]
   83636:	b910      	cbnz	r0, 8363e <SOCPS_AONTimerCmd+0xc>
   83638:	0050      	lsls	r0, r2, #1
   8363a:	0840      	lsrs	r0, r0, #1
   8363c:	e002      	b.n	83644 <SOCPS_AONTimerCmd+0x12>
   8363e:	2080      	movs	r0, #128	; 0x80
   83640:	0600      	lsls	r0, r0, #24
   83642:	4310      	orrs	r0, r2
   83644:	6008      	str	r0, [r1, #0]
   83646:	2002      	movs	r0, #2
   83648:	62c8      	str	r0, [r1, #44]	; 0x2c
   8364a:	4770      	bx	lr

0008364c <SOCPS_SetWakepin>:
   8364c:	b430      	push	{r4, r5}
   8364e:	4b66      	ldr	r3, [pc, #408]	; (837e8 <.image2.ram.text_44>)
   83650:	2401      	movs	r4, #1
   83652:	621c      	str	r4, [r3, #32]
   83654:	681a      	ldr	r2, [r3, #0]
   83656:	43a2      	bics	r2, r4
   83658:	601a      	str	r2, [r3, #0]
   8365a:	685d      	ldr	r5, [r3, #4]
   8365c:	2201      	movs	r2, #1
   8365e:	4082      	lsls	r2, r0
   83660:	4395      	bics	r5, r2
   83662:	2901      	cmp	r1, #1
   83664:	d101      	bne.n	8366a <SOCPS_SetWakepin+0x1e>
   83666:	432a      	orrs	r2, r5
   83668:	0015      	movs	r5, r2
   8366a:	605d      	str	r5, [r3, #4]
   8366c:	6818      	ldr	r0, [r3, #0]
   8366e:	4304      	orrs	r4, r0
   83670:	601c      	str	r4, [r3, #0]
   83672:	bc30      	pop	{r4, r5}
   83674:	4770      	bx	lr

00083676 <SOCPS_SYSIrq>:
   83676:	b510      	push	{r4, lr}
   83678:	f000 fa18 	bl	83aac <SOCPS_SleepDeInit>
   8367c:	4c5b      	ldr	r4, [pc, #364]	; (837ec <.image2.ram.text_45>)
   8367e:	485c      	ldr	r0, [pc, #368]	; (837f0 <.image2.ram.text_46>)
   83680:	6800      	ldr	r0, [r0, #0]
   83682:	b148      	cbz	r0, 83698 <SOCPS_SYSIrq+0x22>
   83684:	6820      	ldr	r0, [r4, #0]
   83686:	b938      	cbnz	r0, 83698 <SOCPS_SYSIrq+0x22>
   83688:	485a      	ldr	r0, [pc, #360]	; (837f4 <.image2.ram.text_47>)
   8368a:	6800      	ldr	r0, [r0, #0]
   8368c:	0380      	lsls	r0, r0, #14
   8368e:	d503      	bpl.n	83698 <SOCPS_SYSIrq+0x22>
   83690:	68a1      	ldr	r1, [r4, #8]
   83692:	4878      	ldr	r0, [pc, #480]	; (83874 <.image2.ram.text_52>)
   83694:	f77c feee 	bl	474 <DiagVSprintf+0x35f>
   83698:	2000      	movs	r0, #0
   8369a:	6020      	str	r0, [r4, #0]
   8369c:	bd10      	pop	{r4, pc}

0008369e <SOCPS_MMUBackup>:
   8369e:	4856      	ldr	r0, [pc, #344]	; (837f8 <.image2.ram.text_48>)
   836a0:	4975      	ldr	r1, [pc, #468]	; (83878 <.image2.ram.text_53>)
   836a2:	680a      	ldr	r2, [r1, #0]
   836a4:	6002      	str	r2, [r0, #0]
   836a6:	688a      	ldr	r2, [r1, #8]
   836a8:	6082      	str	r2, [r0, #8]
   836aa:	68ca      	ldr	r2, [r1, #12]
   836ac:	60c2      	str	r2, [r0, #12]
   836ae:	684a      	ldr	r2, [r1, #4]
   836b0:	6042      	str	r2, [r0, #4]
   836b2:	690a      	ldr	r2, [r1, #16]
   836b4:	6102      	str	r2, [r0, #16]
   836b6:	698a      	ldr	r2, [r1, #24]
   836b8:	6182      	str	r2, [r0, #24]
   836ba:	69ca      	ldr	r2, [r1, #28]
   836bc:	61c2      	str	r2, [r0, #28]
   836be:	6949      	ldr	r1, [r1, #20]
   836c0:	6141      	str	r1, [r0, #20]
   836c2:	4770      	bx	lr

000836c4 <SOCPS_MMUReFill>:
   836c4:	484c      	ldr	r0, [pc, #304]	; (837f8 <.image2.ram.text_48>)
   836c6:	496c      	ldr	r1, [pc, #432]	; (83878 <.image2.ram.text_53>)
   836c8:	6802      	ldr	r2, [r0, #0]
   836ca:	600a      	str	r2, [r1, #0]
   836cc:	6882      	ldr	r2, [r0, #8]
   836ce:	608a      	str	r2, [r1, #8]
   836d0:	68c2      	ldr	r2, [r0, #12]
   836d2:	60ca      	str	r2, [r1, #12]
   836d4:	6842      	ldr	r2, [r0, #4]
   836d6:	604a      	str	r2, [r1, #4]
   836d8:	6902      	ldr	r2, [r0, #16]
   836da:	610a      	str	r2, [r1, #16]
   836dc:	6982      	ldr	r2, [r0, #24]
   836de:	618a      	str	r2, [r1, #24]
   836e0:	69c2      	ldr	r2, [r0, #28]
   836e2:	61ca      	str	r2, [r1, #28]
   836e4:	6940      	ldr	r0, [r0, #20]
   836e6:	6148      	str	r0, [r1, #20]
   836e8:	4770      	bx	lr
	...

000836ec <SOCPS_WakeFromPG>:
   836ec:	b510      	push	{r4, lr}
   836ee:	f7ff ffe9 	bl	836c4 <SOCPS_MMUReFill>
   836f2:	2000      	movs	r0, #0
   836f4:	f7ff fefe 	bl	834f4 <?Veneer 5 (3) for km4_flash_highspeed_resume>
   836f8:	4860      	ldr	r0, [pc, #384]	; (8387c <.image2.ram.text_54>)
   836fa:	6880      	ldr	r0, [r0, #8]
   836fc:	b138      	cbz	r0, 8370e <SOCPS_WakeFromPG+0x22>
   836fe:	483d      	ldr	r0, [pc, #244]	; (837f4 <.image2.ram.text_47>)
   83700:	6800      	ldr	r0, [r0, #0]
   83702:	0380      	lsls	r0, r0, #14
   83704:	d503      	bpl.n	8370e <SOCPS_WakeFromPG+0x22>
   83706:	bf00      	nop
   83708:	a031      	add	r0, pc, #196	; (adr r0, 837d0 <.image2.ram.text_38>)
   8370a:	f77c feb3 	bl	474 <DiagVSprintf+0x35f>
   8370e:	485c      	ldr	r0, [pc, #368]	; (83880 <.image2.ram.text_55>)
   83710:	495c      	ldr	r1, [pc, #368]	; (83884 <.image2.ram.text_56>)
   83712:	6008      	str	r0, [r1, #0]
   83714:	495c      	ldr	r1, [pc, #368]	; (83888 <.image2.ram.text_57>)
   83716:	000a      	movs	r2, r1
   83718:	329c      	adds	r2, #156	; 0x9c
   8371a:	485c      	ldr	r0, [pc, #368]	; (8388c <.image2.ram.text_58>)
   8371c:	6ac3      	ldr	r3, [r0, #44]	; 0x2c
   8371e:	6113      	str	r3, [r2, #16]
   83720:	4b5b      	ldr	r3, [pc, #364]	; (83890 <.image2.ram.text_59>)
   83722:	62c3      	str	r3, [r0, #44]	; 0x2c
   83724:	6813      	ldr	r3, [r2, #0]
   83726:	6c08      	ldr	r0, [r1, #64]	; 0x40
   83728:	2480      	movs	r4, #128	; 0x80
   8372a:	0464      	lsls	r4, r4, #17
   8372c:	4304      	orrs	r4, r0
   8372e:	1f18      	subs	r0, r3, #4
   83730:	6004      	str	r4, [r0, #0]
   83732:	6bcc      	ldr	r4, [r1, #60]	; 0x3c
   83734:	0018      	movs	r0, r3
   83736:	3808      	subs	r0, #8
   83738:	6004      	str	r4, [r0, #0]
   8373a:	6b8c      	ldr	r4, [r1, #56]	; 0x38
   8373c:	0018      	movs	r0, r3
   8373e:	380c      	subs	r0, #12
   83740:	6004      	str	r4, [r0, #0]
   83742:	6b0c      	ldr	r4, [r1, #48]	; 0x30
   83744:	0018      	movs	r0, r3
   83746:	3810      	subs	r0, #16
   83748:	6004      	str	r4, [r0, #0]
   8374a:	68cc      	ldr	r4, [r1, #12]
   8374c:	0018      	movs	r0, r3
   8374e:	3814      	subs	r0, #20
   83750:	6004      	str	r4, [r0, #0]
   83752:	688c      	ldr	r4, [r1, #8]
   83754:	0018      	movs	r0, r3
   83756:	3818      	subs	r0, #24
   83758:	6004      	str	r4, [r0, #0]
   8375a:	684c      	ldr	r4, [r1, #4]
   8375c:	0018      	movs	r0, r3
   8375e:	381c      	subs	r0, #28
   83760:	6004      	str	r4, [r0, #0]
   83762:	680c      	ldr	r4, [r1, #0]
   83764:	0018      	movs	r0, r3
   83766:	3820      	subs	r0, #32
   83768:	6004      	str	r4, [r0, #0]
   8376a:	69cc      	ldr	r4, [r1, #28]
   8376c:	0018      	movs	r0, r3
   8376e:	3824      	subs	r0, #36	; 0x24
   83770:	6004      	str	r4, [r0, #0]
   83772:	698c      	ldr	r4, [r1, #24]
   83774:	0018      	movs	r0, r3
   83776:	3828      	subs	r0, #40	; 0x28
   83778:	6004      	str	r4, [r0, #0]
   8377a:	694c      	ldr	r4, [r1, #20]
   8377c:	0018      	movs	r0, r3
   8377e:	382c      	subs	r0, #44	; 0x2c
   83780:	6004      	str	r4, [r0, #0]
   83782:	690c      	ldr	r4, [r1, #16]
   83784:	0018      	movs	r0, r3
   83786:	3830      	subs	r0, #48	; 0x30
   83788:	6004      	str	r4, [r0, #0]
   8378a:	6acc      	ldr	r4, [r1, #44]	; 0x2c
   8378c:	0018      	movs	r0, r3
   8378e:	3834      	subs	r0, #52	; 0x34
   83790:	6004      	str	r4, [r0, #0]
   83792:	6a8c      	ldr	r4, [r1, #40]	; 0x28
   83794:	0018      	movs	r0, r3
   83796:	3838      	subs	r0, #56	; 0x38
   83798:	6004      	str	r4, [r0, #0]
   8379a:	6a4c      	ldr	r4, [r1, #36]	; 0x24
   8379c:	0018      	movs	r0, r3
   8379e:	383c      	subs	r0, #60	; 0x3c
   837a0:	6004      	str	r4, [r0, #0]
   837a2:	3b40      	subs	r3, #64	; 0x40
   837a4:	6a08      	ldr	r0, [r1, #32]
   837a6:	6018      	str	r0, [r3, #0]
   837a8:	6013      	str	r3, [r2, #0]
   837aa:	b662      	cpsie	i
   837ac:	df00      	svc	0
   837ae:	bf00      	nop
   837b0:	bd10      	pop	{r4, pc}
	...

000837b4 <.image2.ram.text_27>:
   837b4:	48000060 	.word	0x48000060

000837b8 <.image2.ram.text_29>:
   837b8:	4800005c 	.word	0x4800005c

000837bc <.image2.ram.text_30>:
   837bc:	48000040 	.word	0x48000040

000837c0 <.image2.ram.text_31>:
   837c0:	000843c8 	.word	0x000843c8

000837c4 <.image2.ram.text_32>:
   837c4:	48000214 	.word	0x48000214

000837c8 <.image2.ram.text_33>:
   837c8:	ffdfffff 	.word	0xffdfffff

000837cc <.image2.ram.text_34>:
   837cc:	48000004 	.word	0x48000004

000837d0 <.image2.ram.text_38>:
   837d0:	434f530d 	.word	0x434f530d
   837d4:	575f5350 	.word	0x575f5350
   837d8:	46656b61 	.word	0x46656b61
   837dc:	506d6f72 	.word	0x506d6f72
   837e0:	000a2047 	.word	0x000a2047

000837e4 <.image2.ram.text_41>:
   837e4:	48000030 	.word	0x48000030

000837e8 <.image2.ram.text_44>:
   837e8:	4800003c 	.word	0x4800003c

000837ec <.image2.ram.text_45>:
   837ec:	00089cb0 	.word	0x00089cb0

000837f0 <.image2.ram.text_46>:
   837f0:	00089cd8 	.word	0x00089cd8

000837f4 <.image2.ram.text_47>:
   837f4:	000801cc 	.word	0x000801cc

000837f8 <.image2.ram.text_48>:
   837f8:	00089c90 	.word	0x00089c90

000837fc <SOCPS_KM4Wake>:
   837fc:	b4f0      	push	{r4, r5, r6, r7}
   837fe:	48aa      	ldr	r0, [pc, #680]	; (83aa8 <.image2.ram.text_64>)
   83800:	68c3      	ldr	r3, [r0, #12]
   83802:	6904      	ldr	r4, [r0, #16]
   83804:	4db3      	ldr	r5, [pc, #716]	; (83ad4 <.image2.ram.text_67>)
   83806:	f240 3104 	movw	r1, #772	; 0x304
   8380a:	2200      	movs	r2, #0
   8380c:	43d2      	mvns	r2, r2
   8380e:	e009      	b.n	83824 <SOCPS_KM4Wake+0x28>
   83810:	2e5c      	cmp	r6, #92	; 0x5c
   83812:	d106      	bne.n	83822 <SOCPS_KM4Wake+0x26>
   83814:	686e      	ldr	r6, [r5, #4]
   83816:	43b4      	bics	r4, r6
   83818:	e003      	b.n	83822 <SOCPS_KM4Wake+0x26>
   8381a:	428e      	cmp	r6, r1
   8381c:	d1f8      	bne.n	83810 <SOCPS_KM4Wake+0x14>
   8381e:	686e      	ldr	r6, [r5, #4]
   83820:	43b3      	bics	r3, r6
   83822:	350c      	adds	r5, #12
   83824:	682e      	ldr	r6, [r5, #0]
   83826:	4296      	cmp	r6, r2
   83828:	d008      	beq.n	8383c <SOCPS_KM4Wake+0x40>
   8382a:	68af      	ldr	r7, [r5, #8]
   8382c:	2f01      	cmp	r7, #1
   8382e:	d1f4      	bne.n	8381a <SOCPS_KM4Wake+0x1e>
   83830:	428e      	cmp	r6, r1
   83832:	d117      	bne.n	83864 <SOCPS_KM4Wake+0x68>
   83834:	001e      	movs	r6, r3
   83836:	686b      	ldr	r3, [r5, #4]
   83838:	4333      	orrs	r3, r6
   8383a:	e7f2      	b.n	83822 <SOCPS_KM4Wake+0x26>
   8383c:	6104      	str	r4, [r0, #16]
   8383e:	60c3      	str	r3, [r0, #12]
   83840:	49a5      	ldr	r1, [pc, #660]	; (83ad8 <.image2.ram.text_68>)
   83842:	6809      	ldr	r1, [r1, #0]
   83844:	461a      	mov	r2, r3
   83846:	6883      	ldr	r3, [r0, #8]
   83848:	4013      	ands	r3, r2
   8384a:	4019      	ands	r1, r3
   8384c:	6840      	ldr	r0, [r0, #4]
   8384e:	4020      	ands	r0, r4
   83850:	4aa2      	ldr	r2, [pc, #648]	; (83adc <.image2.ram.text_69>)
   83852:	6812      	ldr	r2, [r2, #0]
   83854:	4002      	ands	r2, r0
   83856:	430a      	orrs	r2, r1
   83858:	1e50      	subs	r0, r2, #1
   8385a:	4180      	sbcs	r0, r0
   8385c:	43c0      	mvns	r0, r0
   8385e:	0fc0      	lsrs	r0, r0, #31
   83860:	bcf0      	pop	{r4, r5, r6, r7}
   83862:	4770      	bx	lr
   83864:	2e5c      	cmp	r6, #92	; 0x5c
   83866:	d1dc      	bne.n	83822 <SOCPS_KM4Wake+0x26>
   83868:	0026      	movs	r6, r4
   8386a:	686c      	ldr	r4, [r5, #4]
   8386c:	4334      	orrs	r4, r6
   8386e:	e7d8      	b.n	83822 <SOCPS_KM4Wake+0x26>
   83870:	0000      	movs	r0, r0
	...

00083874 <.image2.ram.text_52>:
   83874:	0c010dc0 	.word	0x0c010dc0

00083878 <.image2.ram.text_53>:
   83878:	48000630 	.word	0x48000630

0008387c <.image2.ram.text_54>:
   8387c:	000845e0 	.word	0x000845e0

00083880 <.image2.ram.text_55>:
   83880:	f0f00000 	.word	0xf0f00000

00083884 <.image2.ram.text_56>:
   83884:	e000ed20 	.word	0xe000ed20

00083888 <.image2.ram.text_57>:
   83888:	00089b94 	.word	0x00089b94

0008388c <.image2.ram.text_58>:
   8388c:	00080000 	.word	0x00080000

00083890 <.image2.ram.text_59>:
   83890:	0c0017cd 	.word	0x0c0017cd

00083894 <SOCPS_SleepCG>:
   83894:	b5f0      	push	{r4, r5, r6, r7, lr}
   83896:	b081      	sub	sp, #4
   83898:	4d91      	ldr	r5, [pc, #580]	; (83ae0 <.image2.ram.text_70>)
   8389a:	68a8      	ldr	r0, [r5, #8]
   8389c:	b138      	cbz	r0, 838ae <SOCPS_SleepCG+0x1a>
   8389e:	4891      	ldr	r0, [pc, #580]	; (83ae4 <.image2.ram.text_71>)
   838a0:	6800      	ldr	r0, [r0, #0]
   838a2:	0380      	lsls	r0, r0, #14
   838a4:	d503      	bpl.n	838ae <SOCPS_SleepCG+0x1a>
   838a6:	bf00      	nop
   838a8:	a099      	add	r0, pc, #612	; (adr r0, 83b10 <.image2.ram.text_82>)
   838aa:	f77c fde3 	bl	474 <DiagVSprintf+0x35f>
   838ae:	4f8e      	ldr	r7, [pc, #568]	; (83ae8 <.image2.ram.text_72>)
   838b0:	2000      	movs	r0, #0
   838b2:	6038      	str	r0, [r7, #0]
   838b4:	f7ff fe26 	bl	83504 <?Veneer 6 (3) for pmu_exec_sleep_hook_funs>
   838b8:	0004      	movs	r4, r0
   838ba:	2c1f      	cmp	r4, #31
   838bc:	d00c      	beq.n	838d8 <SOCPS_SleepCG+0x44>
   838be:	f7ff fe29 	bl	83514 <?Veneer 7 (3) for pmu_exec_wakeup_hook_funs>
   838c2:	4888      	ldr	r0, [pc, #544]	; (83ae4 <.image2.ram.text_71>)
   838c4:	6800      	ldr	r0, [r0, #0]
   838c6:	0380      	lsls	r0, r0, #14
   838c8:	d503      	bpl.n	838d2 <SOCPS_SleepCG+0x3e>
   838ca:	0021      	movs	r1, r4
   838cc:	a093      	add	r0, pc, #588	; (adr r0, 83b1c <.image2.ram.text_83>)
   838ce:	f77c fdd1 	bl	474 <DiagVSprintf+0x35f>
   838d2:	f000 f8eb 	bl	83aac <SOCPS_SleepDeInit>
   838d6:	e033      	b.n	83940 <SOCPS_SleepCG+0xac>
   838d8:	4884      	ldr	r0, [pc, #528]	; (83aec <.image2.ram.text_73>)
   838da:	f780 f857 	bl	398c <RTIM_Cmd+0xb1>
   838de:	f240 112c 	movw	r1, #300	; 0x12c
   838e2:	1840      	adds	r0, r0, r1
   838e4:	62a8      	str	r0, [r5, #40]	; 0x28
   838e6:	4c70      	ldr	r4, [pc, #448]	; (83aa8 <.image2.ram.text_64>)
   838e8:	2001      	movs	r0, #1
   838ea:	6020      	str	r0, [r4, #0]
   838ec:	4e80      	ldr	r6, [pc, #512]	; (83af0 <.image2.ram.text_74>)
   838ee:	6830      	ldr	r0, [r6, #0]
   838f0:	2180      	movs	r1, #128	; 0x80
   838f2:	4388      	bics	r0, r1
   838f4:	6030      	str	r0, [r6, #0]
   838f6:	2001      	movs	r0, #1
   838f8:	f7ff fe6a 	bl	835d0 <SOCPS_SetPeripheralClock>
   838fc:	f000 f9da 	bl	83cb4 <SOCPS_SleepCG_RAM>
   83900:	6830      	ldr	r0, [r6, #0]
   83902:	2180      	movs	r1, #128	; 0x80
   83904:	4301      	orrs	r1, r0
   83906:	6031      	str	r1, [r6, #0]
   83908:	2000      	movs	r0, #0
   8390a:	f7ff fe61 	bl	835d0 <SOCPS_SetPeripheralClock>
   8390e:	6938      	ldr	r0, [r7, #16]
   83910:	60a0      	str	r0, [r4, #8]
   83912:	6db0      	ldr	r0, [r6, #88]	; 0x58
   83914:	6060      	str	r0, [r4, #4]
   83916:	201f      	movs	r0, #31
   83918:	f7ff fdfc 	bl	83514 <?Veneer 7 (3) for pmu_exec_wakeup_hook_funs>
   8391c:	68a8      	ldr	r0, [r5, #8]
   8391e:	b140      	cbz	r0, 83932 <SOCPS_SleepCG+0x9e>
   83920:	4870      	ldr	r0, [pc, #448]	; (83ae4 <.image2.ram.text_71>)
   83922:	6800      	ldr	r0, [r0, #0]
   83924:	0380      	lsls	r0, r0, #14
   83926:	d504      	bpl.n	83932 <SOCPS_SleepCG+0x9e>
   83928:	68a2      	ldr	r2, [r4, #8]
   8392a:	6861      	ldr	r1, [r4, #4]
   8392c:	a082      	add	r0, pc, #520	; (adr r0, 83b38 <.image2.ram.text_84>)
   8392e:	f77c fda1 	bl	474 <DiagVSprintf+0x35f>
   83932:	f7ff ff63 	bl	837fc <SOCPS_KM4Wake>
   83936:	2801      	cmp	r0, #1
   83938:	d102      	bne.n	83940 <SOCPS_SleepCG+0xac>
   8393a:	2080      	movs	r0, #128	; 0x80
   8393c:	f7ff fdf2 	bl	83524 <?Veneer 8 (3) for km4_set_wake_event>
   83940:	b001      	add	sp, #4
   83942:	bdf0      	pop	{r4, r5, r6, r7, pc}

00083944 <SOCPS_SleepPG>:
   83944:	b5fe      	push	{r1, r2, r3, r4, r5, r6, r7, lr}
   83946:	2600      	movs	r6, #0
   83948:	0034      	movs	r4, r6
   8394a:	9600      	str	r6, [sp, #0]
   8394c:	4d64      	ldr	r5, [pc, #400]	; (83ae0 <.image2.ram.text_70>)
   8394e:	68a8      	ldr	r0, [r5, #8]
   83950:	2800      	cmp	r0, #0
   83952:	d006      	beq.n	83962 <SOCPS_SleepPG+0x1e>
   83954:	4863      	ldr	r0, [pc, #396]	; (83ae4 <.image2.ram.text_71>)
   83956:	6800      	ldr	r0, [r0, #0]
   83958:	0380      	lsls	r0, r0, #14
   8395a:	d502      	bpl.n	83962 <SOCPS_SleepPG+0x1e>
   8395c:	a07a      	add	r0, pc, #488	; (adr r0, 83b48 <.image2.ram.text_85>)
   8395e:	f77c fd89 	bl	474 <DiagVSprintf+0x35f>
   83962:	2000      	movs	r0, #0
   83964:	f7ff fde6 	bl	83534 <?Veneer 9 (3) for SOCPS_DsleepWakeStatusSet>
   83968:	f7ff fdcc 	bl	83504 <?Veneer 6 (3) for pmu_exec_sleep_hook_funs>
   8396c:	9001      	str	r0, [sp, #4]
   8396e:	9801      	ldr	r0, [sp, #4]
   83970:	281f      	cmp	r0, #31
   83972:	d00d      	beq.n	83990 <SOCPS_SleepPG+0x4c>
   83974:	9801      	ldr	r0, [sp, #4]
   83976:	f7ff fdcd 	bl	83514 <?Veneer 7 (3) for pmu_exec_wakeup_hook_funs>
   8397a:	485a      	ldr	r0, [pc, #360]	; (83ae4 <.image2.ram.text_71>)
   8397c:	6800      	ldr	r0, [r0, #0]
   8397e:	0380      	lsls	r0, r0, #14
   83980:	d503      	bpl.n	8398a <SOCPS_SleepPG+0x46>
   83982:	9901      	ldr	r1, [sp, #4]
   83984:	a065      	add	r0, pc, #404	; (adr r0, 83b1c <.image2.ram.text_83>)
   83986:	f77c fd75 	bl	474 <DiagVSprintf+0x35f>
   8398a:	f000 f88f 	bl	83aac <SOCPS_SleepDeInit>
   8398e:	e089      	b.n	83aa4 <SOCPS_SleepPG+0x160>
   83990:	4f58      	ldr	r7, [pc, #352]	; (83af4 <.image2.ram.text_75>)
   83992:	6838      	ldr	r0, [r7, #0]
   83994:	2180      	movs	r1, #128	; 0x80
   83996:	0589      	lsls	r1, r1, #22
   83998:	4301      	orrs	r1, r0
   8399a:	9100      	str	r1, [sp, #0]
   8399c:	9800      	ldr	r0, [sp, #0]
   8399e:	6038      	str	r0, [r7, #0]
   839a0:	4c41      	ldr	r4, [pc, #260]	; (83aa8 <.image2.ram.text_64>)
   839a2:	6026      	str	r6, [r4, #0]
   839a4:	4e54      	ldr	r6, [pc, #336]	; (83af8 <.image2.ram.text_76>)
   839a6:	4855      	ldr	r0, [pc, #340]	; (83afc <.image2.ram.text_77>)
   839a8:	f77f fb57 	bl	305a <IPC_IERSet+0x3>
   839ac:	21a0      	movs	r1, #160	; 0xa0
   839ae:	5070      	str	r0, [r6, r1]
   839b0:	f3ef 8010 	mrs	r0, PRIMASK
   839b4:	21a8      	movs	r1, #168	; 0xa8
   839b6:	5070      	str	r0, [r6, r1]
   839b8:	f7ff fdc4 	bl	83544 <?Veneer 10 (3) for SOCPS_NVICBackup>
   839bc:	f7ff fdca 	bl	83554 <?Veneer 11 (3) for SOCPS_MPUBackup>
   839c0:	f7ff fe6d 	bl	8369e <SOCPS_MMUBackup>
   839c4:	f77f fc4e 	bl	3264 <LOGUART_SetIMR+0xb>
   839c8:	4600      	mov	r0, r0
   839ca:	6030      	str	r0, [r6, #0]
   839cc:	4608      	mov	r0, r1
   839ce:	6070      	str	r0, [r6, #4]
   839d0:	4610      	mov	r0, r2
   839d2:	60b0      	str	r0, [r6, #8]
   839d4:	4618      	mov	r0, r3
   839d6:	60f0      	str	r0, [r6, #12]
   839d8:	4620      	mov	r0, r4
   839da:	6130      	str	r0, [r6, #16]
   839dc:	4628      	mov	r0, r5
   839de:	6170      	str	r0, [r6, #20]
   839e0:	4630      	mov	r0, r6
   839e2:	61b0      	str	r0, [r6, #24]
   839e4:	4638      	mov	r0, r7
   839e6:	61f0      	str	r0, [r6, #28]
   839e8:	4640      	mov	r0, r8
   839ea:	6230      	str	r0, [r6, #32]
   839ec:	4648      	mov	r0, r9
   839ee:	6270      	str	r0, [r6, #36]	; 0x24
   839f0:	4650      	mov	r0, sl
   839f2:	62b0      	str	r0, [r6, #40]	; 0x28
   839f4:	4658      	mov	r0, fp
   839f6:	62f0      	str	r0, [r6, #44]	; 0x2c
   839f8:	4660      	mov	r0, ip
   839fa:	6330      	str	r0, [r6, #48]	; 0x30
   839fc:	4668      	mov	r0, sp
   839fe:	6370      	str	r0, [r6, #52]	; 0x34
   83a00:	0030      	movs	r0, r6
   83a02:	3038      	adds	r0, #56	; 0x38
   83a04:	4671      	mov	r1, lr
   83a06:	6001      	str	r1, [r0, #0]
   83a08:	4679      	mov	r1, pc
   83a0a:	63f1      	str	r1, [r6, #60]	; 0x3c
   83a0c:	f3ef 8103 	mrs	r1, PSR
   83a10:	6431      	str	r1, [r6, #64]	; 0x40
   83a12:	bf00      	nop
   83a14:	bf00      	nop
   83a16:	6bf1      	ldr	r1, [r6, #60]	; 0x3c
   83a18:	6001      	str	r1, [r0, #0]
   83a1a:	6b70      	ldr	r0, [r6, #52]	; 0x34
   83a1c:	219c      	movs	r1, #156	; 0x9c
   83a1e:	5070      	str	r0, [r6, r1]
   83a20:	6820      	ldr	r0, [r4, #0]
   83a22:	2801      	cmp	r0, #1
   83a24:	d00a      	beq.n	83a3c <SOCPS_SleepPG+0xf8>
   83a26:	2001      	movs	r0, #1
   83a28:	6020      	str	r0, [r4, #0]
   83a2a:	4831      	ldr	r0, [pc, #196]	; (83af0 <.image2.ram.text_74>)
   83a2c:	6801      	ldr	r1, [r0, #0]
   83a2e:	2280      	movs	r2, #128	; 0x80
   83a30:	4391      	bics	r1, r2
   83a32:	9100      	str	r1, [sp, #0]
   83a34:	9900      	ldr	r1, [sp, #0]
   83a36:	6001      	str	r1, [r0, #0]
   83a38:	f000 f998 	bl	83d6c <SOCPS_SleepPG_RAM>
   83a3c:	482c      	ldr	r0, [pc, #176]	; (83af0 <.image2.ram.text_74>)
   83a3e:	6801      	ldr	r1, [r0, #0]
   83a40:	2280      	movs	r2, #128	; 0x80
   83a42:	430a      	orrs	r2, r1
   83a44:	9200      	str	r2, [sp, #0]
   83a46:	9900      	ldr	r1, [sp, #0]
   83a48:	6001      	str	r1, [r0, #0]
   83a4a:	68e8      	ldr	r0, [r5, #12]
   83a4c:	2800      	cmp	r0, #0
   83a4e:	d002      	beq.n	83a56 <SOCPS_SleepPG+0x112>
   83a50:	2001      	movs	r0, #1
   83a52:	f7ff fd87 	bl	83564 <?Veneer 12 (3) for SOCPS_OSC2M_Cmd>
   83a56:	6838      	ldr	r0, [r7, #0]
   83a58:	4d29      	ldr	r5, [pc, #164]	; (83b00 <.image2.ram.text_78>)
   83a5a:	4005      	ands	r5, r0
   83a5c:	603d      	str	r5, [r7, #0]
   83a5e:	20ac      	movs	r0, #172	; 0xac
   83a60:	5830      	ldr	r0, [r6, r0]
   83a62:	4928      	ldr	r1, [pc, #160]	; (83b04 <.image2.ram.text_79>)
   83a64:	62c8      	str	r0, [r1, #44]	; 0x2c
   83a66:	20a8      	movs	r0, #168	; 0xa8
   83a68:	5830      	ldr	r0, [r6, r0]
   83a6a:	f380 8810 	msr	PRIMASK, r0
   83a6e:	20a0      	movs	r0, #160	; 0xa0
   83a70:	5831      	ldr	r1, [r6, r0]
   83a72:	4822      	ldr	r0, [pc, #136]	; (83afc <.image2.ram.text_77>)
   83a74:	f77f faef 	bl	3056 <IPC_INTConfig+0x11>
   83a78:	4823      	ldr	r0, [pc, #140]	; (83b08 <.image2.ram.text_80>)
   83a7a:	6800      	ldr	r0, [r0, #0]
   83a7c:	60a0      	str	r0, [r4, #8]
   83a7e:	f7ff fd9c 	bl	835ba <SOCPS_AONWakeReason>
   83a82:	6060      	str	r0, [r4, #4]
   83a84:	f7ff fd76 	bl	83574 <?Veneer 13 (3) for SOCPS_NVICReFill>
   83a88:	f7ff fd7c 	bl	83584 <?Veneer 14 (3) for SOCPS_MPUReFill>
   83a8c:	f7ff fd82 	bl	83594 <?Veneer 15 (3) for pinmap_wake>
   83a90:	201f      	movs	r0, #31
   83a92:	f7ff fd3f 	bl	83514 <?Veneer 7 (3) for pmu_exec_wakeup_hook_funs>
   83a96:	f7ff feb1 	bl	837fc <SOCPS_KM4Wake>
   83a9a:	2801      	cmp	r0, #1
   83a9c:	d102      	bne.n	83aa4 <SOCPS_SleepPG+0x160>
   83a9e:	2080      	movs	r0, #128	; 0x80
   83aa0:	f7ff fd40 	bl	83524 <?Veneer 8 (3) for km4_set_wake_event>
   83aa4:	bdf7      	pop	{r0, r1, r2, r4, r5, r6, r7, pc}
	...

00083aa8 <.image2.ram.text_64>:
   83aa8:	00089cb0 	.word	0x00089cb0

00083aac <SOCPS_SleepDeInit>:
   83aac:	b500      	push	{lr}
   83aae:	b081      	sub	sp, #4
   83ab0:	2000      	movs	r0, #0
   83ab2:	f7ff fdbe 	bl	83632 <SOCPS_AONTimerCmd>
   83ab6:	2100      	movs	r1, #0
   83ab8:	2000      	movs	r0, #0
   83aba:	43c0      	mvns	r0, r0
   83abc:	f000 f86e 	bl	83b9c <SOCPS_SetWakeEvent>
   83ac0:	f000 f886 	bl	83bd0 <SOCPS_ClearWakePin>
   83ac4:	f000 f88d 	bl	83be2 <SOCPS_ClearWakeEvent>
   83ac8:	2001      	movs	r0, #1
   83aca:	4910      	ldr	r1, [pc, #64]	; (83b0c <.image2.ram.text_81>)
   83acc:	6008      	str	r0, [r1, #0]
   83ace:	b001      	add	sp, #4
   83ad0:	bd00      	pop	{pc}
	...

00083ad4 <.image2.ram.text_67>:
   83ad4:	00084470 	.word	0x00084470

00083ad8 <.image2.ram.text_68>:
   83ad8:	48000300 	.word	0x48000300

00083adc <.image2.ram.text_69>:
   83adc:	48000058 	.word	0x48000058

00083ae0 <.image2.ram.text_70>:
   83ae0:	000845e0 	.word	0x000845e0

00083ae4 <.image2.ram.text_71>:
   83ae4:	000801cc 	.word	0x000801cc

00083ae8 <.image2.ram.text_72>:
   83ae8:	480002f4 	.word	0x480002f4

00083aec <.image2.ram.text_73>:
   83aec:	48002280 	.word	0x48002280

00083af0 <.image2.ram.text_74>:
   83af0:	48000004 	.word	0x48000004

00083af4 <.image2.ram.text_75>:
   83af4:	480003f8 	.word	0x480003f8

00083af8 <.image2.ram.text_76>:
   83af8:	00089b94 	.word	0x00089b94

00083afc <.image2.ram.text_77>:
   83afc:	48006000 	.word	0x48006000

00083b00 <.image2.ram.text_78>:
   83b00:	dfffffff 	.word	0xdfffffff

00083b04 <.image2.ram.text_79>:
   83b04:	00080000 	.word	0x00080000

00083b08 <.image2.ram.text_80>:
   83b08:	48000304 	.word	0x48000304

00083b0c <.image2.ram.text_81>:
   83b0c:	e000e280 	.word	0xe000e280

00083b10 <.image2.ram.text_82>:
   83b10:	304d4b0d 	.word	0x304d4b0d
   83b14:	0a204743 	.word	0x0a204743
   83b18:	00000000 	.word	0x00000000

00083b1c <.image2.ram.text_83>:
   83b1c:	706f4f0d 	.word	0x706f4f0d
   83b20:	53203a73 	.word	0x53203a73
   83b24:	7065656c 	.word	0x7065656c
   83b28:	69614620 	.word	0x69614620
   83b2c:	7825206c 	.word	0x7825206c
   83b30:	21212120 	.word	0x21212120
   83b34:	000a2121 	.word	0x000a2121

00083b38 <.image2.ram.text_84>:
   83b38:	304d4b0d 	.word	0x304d4b0d
   83b3c:	202d4743 	.word	0x202d4743
   83b40:	25207825 	.word	0x25207825
   83b44:	0a78      	.short	0x0a78
	...

00083b48 <.image2.ram.text_85>:
   83b48:	434f530d 	.word	0x434f530d
   83b4c:	535f5350 	.word	0x535f5350
   83b50:	7065656c 	.word	0x7065656c
   83b54:	0a204750 	.word	0x0a204750
   83b58:	00000000 	.word	0x00000000

00083b5c <?Veneer 16 (3) for pinmap_sleep>:
   83b5c:	b408      	push	{r3}
   83b5e:	4b02      	ldr	r3, [pc, #8]	; (83b68 <?Veneer 16 (3) for pinmap_sleep+0xc>)
   83b60:	469c      	mov	ip, r3
   83b62:	bc08      	pop	{r3}
   83b64:	4760      	bx	ip
   83b66:	46c0      	nop			; (mov r8, r8)
   83b68:	0c00e503 	.word	0x0c00e503

00083b6c <?Veneer 17 (3) for km4_flash_highspeed_suspend>:
   83b6c:	b408      	push	{r3}
   83b6e:	4b02      	ldr	r3, [pc, #8]	; (83b78 <?Veneer 17 (3) for km4_flash_highspeed_suspend+0xc>)
   83b70:	469c      	mov	ip, r3
   83b72:	bc08      	pop	{r3}
   83b74:	4760      	bx	ip
   83b76:	46c0      	nop			; (mov r8, r8)
   83b78:	0c001e39 	.word	0x0c001e39

00083b7c <?Veneer 18 (3) for SOCPS_DsleepInit>:
   83b7c:	b408      	push	{r3}
   83b7e:	4b02      	ldr	r3, [pc, #8]	; (83b88 <?Veneer 18 (3) for SOCPS_DsleepInit+0xc>)
   83b80:	469c      	mov	ip, r3
   83b82:	bc08      	pop	{r3}
   83b84:	4760      	bx	ip
   83b86:	46c0      	nop			; (mov r8, r8)
   83b88:	0c001ad1 	.word	0x0c001ad1

00083b8c <?Veneer 19 (3) for pinmap_deepsleep>:
   83b8c:	b408      	push	{r3}
   83b8e:	4b02      	ldr	r3, [pc, #8]	; (83b98 <?Veneer 19 (3) for pinmap_deepsleep+0xc>)
   83b90:	469c      	mov	ip, r3
   83b92:	bc08      	pop	{r3}
   83b94:	4760      	bx	ip
   83b96:	46c0      	nop			; (mov r8, r8)
   83b98:	0c00e53d 	.word	0x0c00e53d

00083b9c <SOCPS_SetWakeEvent>:
   83b9c:	b410      	push	{r4}
   83b9e:	4ab3      	ldr	r2, [pc, #716]	; (83e6c <.image2.ram.text_12>)
   83ba0:	6993      	ldr	r3, [r2, #24]
   83ba2:	2410      	movs	r4, #16
   83ba4:	431c      	orrs	r4, r3
   83ba6:	6194      	str	r4, [r2, #24]
   83ba8:	6813      	ldr	r3, [r2, #0]
   83baa:	2901      	cmp	r1, #1
   83bac:	d101      	bne.n	83bb2 <SOCPS_SetWakeEvent+0x16>
   83bae:	4318      	orrs	r0, r3
   83bb0:	e001      	b.n	83bb6 <SOCPS_SetWakeEvent+0x1a>
   83bb2:	4383      	bics	r3, r0
   83bb4:	0018      	movs	r0, r3
   83bb6:	6010      	str	r0, [r2, #0]
   83bb8:	bc10      	pop	{r4}
   83bba:	4770      	bx	lr

00083bbc <SOCPS_SetWakeEventAON>:
   83bbc:	4aac      	ldr	r2, [pc, #688]	; (83e70 <.image2.ram.text_13>)
   83bbe:	6813      	ldr	r3, [r2, #0]
   83bc0:	2901      	cmp	r1, #1
   83bc2:	d101      	bne.n	83bc8 <SOCPS_SetWakeEventAON+0xc>
   83bc4:	4318      	orrs	r0, r3
   83bc6:	e001      	b.n	83bcc <SOCPS_SetWakeEventAON+0x10>
   83bc8:	4383      	bics	r3, r0
   83bca:	0018      	movs	r0, r3
   83bcc:	6010      	str	r0, [r2, #0]
   83bce:	4770      	bx	lr

00083bd0 <SOCPS_ClearWakePin>:
   83bd0:	4865      	ldr	r0, [pc, #404]	; (83d68 <.image2.ram.text_10>)
   83bd2:	6801      	ldr	r1, [r0, #0]
   83bd4:	4ac3      	ldr	r2, [pc, #780]	; (83ee4 <.image2.ram.text_21>)
   83bd6:	400a      	ands	r2, r1
   83bd8:	21f0      	movs	r1, #240	; 0xf0
   83bda:	0509      	lsls	r1, r1, #20
   83bdc:	4311      	orrs	r1, r2
   83bde:	6001      	str	r1, [r0, #0]
   83be0:	4770      	bx	lr

00083be2 <SOCPS_ClearWakeEvent>:
   83be2:	48c1      	ldr	r0, [pc, #772]	; (83ee8 <.image2.ram.text_22>)
   83be4:	6801      	ldr	r1, [r0, #0]
   83be6:	6001      	str	r1, [r0, #0]
   83be8:	6881      	ldr	r1, [r0, #8]
   83bea:	6081      	str	r1, [r0, #8]
   83bec:	20ef      	movs	r0, #239	; 0xef
   83bee:	f7ff bce7 	b.w	835c0 <SOCPS_AONWakeClear>

00083bf2 <SOCPS_AudioLDO>:
   83bf2:	b530      	push	{r4, r5, lr}
   83bf4:	b081      	sub	sp, #4
   83bf6:	b970      	cbnz	r0, 83c16 <SOCPS_AudioLDO+0x24>
   83bf8:	489e      	ldr	r0, [pc, #632]	; (83e74 <.image2.ram.text_14>)
   83bfa:	6801      	ldr	r1, [r0, #0]
   83bfc:	4a9e      	ldr	r2, [pc, #632]	; (83e78 <.image2.ram.text_15>)
   83bfe:	400a      	ands	r2, r1
   83c00:	6002      	str	r2, [r0, #0]
   83c02:	0610      	lsls	r0, r2, #24
   83c04:	0e40      	lsrs	r0, r0, #25
   83c06:	49b9      	ldr	r1, [pc, #740]	; (83eec <.image2.ram.text_23>)
   83c08:	6008      	str	r0, [r1, #0]
   83c0a:	489c      	ldr	r0, [pc, #624]	; (83e7c <.image2.ram.text_16>)
   83c0c:	6801      	ldr	r1, [r0, #0]
   83c0e:	2207      	movs	r2, #7
   83c10:	4391      	bics	r1, r2
   83c12:	6001      	str	r1, [r0, #0]
   83c14:	e021      	b.n	83c5a <SOCPS_AudioLDO+0x68>
   83c16:	489a      	ldr	r0, [pc, #616]	; (83e80 <.image2.ram.text_17>)
   83c18:	6840      	ldr	r0, [r0, #4]
   83c1a:	b9f0      	cbnz	r0, 83c5a <SOCPS_AudioLDO+0x68>
   83c1c:	4899      	ldr	r0, [pc, #612]	; (83e84 <.image2.ram.text_18>)
   83c1e:	6980      	ldr	r0, [r0, #24]
   83c20:	b1d8      	cbz	r0, 83c5a <SOCPS_AudioLDO+0x68>
   83c22:	4c94      	ldr	r4, [pc, #592]	; (83e74 <.image2.ram.text_14>)
   83c24:	6820      	ldr	r0, [r4, #0]
   83c26:	2501      	movs	r5, #1
   83c28:	4028      	ands	r0, r5
   83c2a:	d116      	bne.n	83c5a <SOCPS_AudioLDO+0x68>
   83c2c:	4893      	ldr	r0, [pc, #588]	; (83e7c <.image2.ram.text_16>)
   83c2e:	6801      	ldr	r1, [r0, #0]
   83c30:	2207      	movs	r2, #7
   83c32:	430a      	orrs	r2, r1
   83c34:	6002      	str	r2, [r0, #0]
   83c36:	6820      	ldr	r0, [r4, #0]
   83c38:	0229      	lsls	r1, r5, #8
   83c3a:	4301      	orrs	r1, r0
   83c3c:	6021      	str	r1, [r4, #0]
   83c3e:	2005      	movs	r0, #5
   83c40:	f77d fc3f 	bl	14c2 <DelayNop+0xd>
   83c44:	6820      	ldr	r0, [r4, #0]
   83c46:	21fe      	movs	r1, #254	; 0xfe
   83c48:	4388      	bics	r0, r1
   83c4a:	49a8      	ldr	r1, [pc, #672]	; (83eec <.image2.ram.text_23>)
   83c4c:	6809      	ldr	r1, [r1, #0]
   83c4e:	0049      	lsls	r1, r1, #1
   83c50:	4301      	orrs	r1, r0
   83c52:	6021      	str	r1, [r4, #0]
   83c54:	6820      	ldr	r0, [r4, #0]
   83c56:	4305      	orrs	r5, r0
   83c58:	6025      	str	r5, [r4, #0]
   83c5a:	b001      	add	sp, #4
   83c5c:	bd30      	pop	{r4, r5, pc}

00083c5e <SOCPS_SWRLDO_Suspend>:
   83c5e:	b410      	push	{r4}
   83c60:	49a3      	ldr	r1, [pc, #652]	; (83ef0 <.image2.ram.text_24>)
   83c62:	4aa4      	ldr	r2, [pc, #656]	; (83ef4 <.image2.ram.text_25>)
   83c64:	4ba4      	ldr	r3, [pc, #656]	; (83ef8 <.image2.ram.text_26>)
   83c66:	2801      	cmp	r0, #1
   83c68:	6858      	ldr	r0, [r3, #4]
   83c6a:	d113      	bne.n	83c94 <SOCPS_SWRLDO_Suspend+0x36>
   83c6c:	4ca3      	ldr	r4, [pc, #652]	; (83efc <.image2.ram.text_27>)
   83c6e:	4004      	ands	r4, r0
   83c70:	f640 6000 	movw	r0, #3584	; 0xe00
   83c74:	4320      	orrs	r0, r4
   83c76:	6058      	str	r0, [r3, #4]
   83c78:	6818      	ldr	r0, [r3, #0]
   83c7a:	4ca1      	ldr	r4, [pc, #644]	; (83f00 <.image2.ram.text_28>)
   83c7c:	4004      	ands	r4, r0
   83c7e:	20c8      	movs	r0, #200	; 0xc8
   83c80:	0240      	lsls	r0, r0, #9
   83c82:	4320      	orrs	r0, r4
   83c84:	6018      	str	r0, [r3, #0]
   83c86:	6810      	ldr	r0, [r2, #0]
   83c88:	4001      	ands	r1, r0
   83c8a:	f244 0000 	movw	r0, #16384	; 0x4000
   83c8e:	4308      	orrs	r0, r1
   83c90:	0001      	movs	r1, r0
   83c92:	e00c      	b.n	83cae <SOCPS_SWRLDO_Suspend+0x50>
   83c94:	4c9b      	ldr	r4, [pc, #620]	; (83f04 <.image2.ram.text_29>)
   83c96:	4004      	ands	r4, r0
   83c98:	0c50      	lsrs	r0, r2, #17
   83c9a:	4320      	orrs	r0, r4
   83c9c:	6058      	str	r0, [r3, #4]
   83c9e:	6818      	ldr	r0, [r3, #0]
   83ca0:	4c99      	ldr	r4, [pc, #612]	; (83f08 <.image2.ram.text_30>)
   83ca2:	4004      	ands	r4, r0
   83ca4:	0bd0      	lsrs	r0, r2, #15
   83ca6:	4320      	orrs	r0, r4
   83ca8:	6018      	str	r0, [r3, #0]
   83caa:	6810      	ldr	r0, [r2, #0]
   83cac:	4001      	ands	r1, r0
   83cae:	6011      	str	r1, [r2, #0]
   83cb0:	bc10      	pop	{r4}
   83cb2:	4770      	bx	lr

00083cb4 <SOCPS_SleepCG_RAM>:
   83cb4:	b5f0      	push	{r4, r5, r6, r7, lr}
   83cb6:	b081      	sub	sp, #4
   83cb8:	f7ff ff50 	bl	83b5c <?Veneer 16 (3) for pinmap_sleep>
   83cbc:	2000      	movs	r0, #0
   83cbe:	f7ff ff55 	bl	83b6c <?Veneer 17 (3) for km4_flash_highspeed_suspend>
   83cc2:	4c70      	ldr	r4, [pc, #448]	; (83e84 <.image2.ram.text_18>)
   83cc4:	68e0      	ldr	r0, [r4, #12]
   83cc6:	b110      	cbz	r0, 83cce <SOCPS_SleepCG_RAM+0x1a>
   83cc8:	2000      	movs	r0, #0
   83cca:	f7ff fc4b 	bl	83564 <?Veneer 12 (3) for SOCPS_OSC2M_Cmd>
   83cce:	2001      	movs	r0, #1
   83cd0:	f77e fa72 	bl	21b8 <FLASH_Erase+0x71>
   83cd4:	2000      	movs	r0, #0
   83cd6:	f7ff ff8c 	bl	83bf2 <SOCPS_AudioLDO>
   83cda:	4d83      	ldr	r5, [pc, #524]	; (83ee8 <.image2.ram.text_22>)
   83cdc:	69e8      	ldr	r0, [r5, #28]
   83cde:	2101      	movs	r1, #1
   83ce0:	4301      	orrs	r1, r0
   83ce2:	61e9      	str	r1, [r5, #28]
   83ce4:	4e89      	ldr	r6, [pc, #548]	; (83f0c <.image2.ram.text_31>)
   83ce6:	488a      	ldr	r0, [pc, #552]	; (83f10 <.image2.ram.text_32>)
   83ce8:	7800      	ldrb	r0, [r0, #0]
   83cea:	b938      	cbnz	r0, 83cfc <SOCPS_SleepCG_RAM+0x48>
   83cec:	6830      	ldr	r0, [r6, #0]
   83cee:	2180      	movs	r1, #128	; 0x80
   83cf0:	02c9      	lsls	r1, r1, #11
   83cf2:	4301      	orrs	r1, r0
   83cf4:	6031      	str	r1, [r6, #0]
   83cf6:	200c      	movs	r0, #12
   83cf8:	4381      	bics	r1, r0
   83cfa:	6031      	str	r1, [r6, #0]
   83cfc:	6968      	ldr	r0, [r5, #20]
   83cfe:	2702      	movs	r7, #2
   83d00:	2101      	movs	r1, #1
   83d02:	4388      	bics	r0, r1
   83d04:	4338      	orrs	r0, r7
   83d06:	6168      	str	r0, [r5, #20]
   83d08:	2032      	movs	r0, #50	; 0x32
   83d0a:	f77d fbda 	bl	14c2 <DelayNop+0xd>
   83d0e:	6930      	ldr	r0, [r6, #16]
   83d10:	4307      	orrs	r7, r0
   83d12:	6137      	str	r7, [r6, #16]
   83d14:	6828      	ldr	r0, [r5, #0]
   83d16:	0680      	lsls	r0, r0, #26
   83d18:	d504      	bpl.n	83d24 <SOCPS_SleepCG_RAM+0x70>
   83d1a:	6928      	ldr	r0, [r5, #16]
   83d1c:	2180      	movs	r1, #128	; 0x80
   83d1e:	0249      	lsls	r1, r1, #9
   83d20:	4301      	orrs	r1, r0
   83d22:	6129      	str	r1, [r5, #16]
   83d24:	487b      	ldr	r0, [pc, #492]	; (83f14 <.image2.ram.text_33>)
   83d26:	2100      	movs	r1, #0
   83d28:	6141      	str	r1, [r0, #20]
   83d2a:	f77f fe2f 	bl	398c <RTIM_Cmd+0xb1>
   83d2e:	6320      	str	r0, [r4, #48]	; 0x30
   83d30:	6830      	ldr	r0, [r6, #0]
   83d32:	2104      	movs	r1, #4
   83d34:	4301      	orrs	r1, r0
   83d36:	6031      	str	r1, [r6, #0]
   83d38:	2000      	movs	r0, #0
   83d3a:	f77e fa3d 	bl	21b8 <FLASH_Erase+0x71>
   83d3e:	4874      	ldr	r0, [pc, #464]	; (83f10 <.image2.ram.text_32>)
   83d40:	7800      	ldrb	r0, [r0, #0]
   83d42:	b928      	cbnz	r0, 83d50 <SOCPS_SleepCG_RAM+0x9c>
   83d44:	6830      	ldr	r0, [r6, #0]
   83d46:	4974      	ldr	r1, [pc, #464]	; (83f18 <.image2.ram.text_34>)
   83d48:	4001      	ands	r1, r0
   83d4a:	2008      	movs	r0, #8
   83d4c:	4308      	orrs	r0, r1
   83d4e:	6030      	str	r0, [r6, #0]
   83d50:	68e0      	ldr	r0, [r4, #12]
   83d52:	b110      	cbz	r0, 83d5a <SOCPS_SleepCG_RAM+0xa6>
   83d54:	2001      	movs	r0, #1
   83d56:	f7ff fc05 	bl	83564 <?Veneer 12 (3) for SOCPS_OSC2M_Cmd>
   83d5a:	2000      	movs	r0, #0
   83d5c:	f7ff fbca 	bl	834f4 <?Veneer 5 (3) for km4_flash_highspeed_resume>
   83d60:	f7ff fc18 	bl	83594 <?Veneer 15 (3) for pinmap_wake>
   83d64:	b001      	add	sp, #4
   83d66:	bdf0      	pop	{r4, r5, r6, r7, pc}

00083d68 <.image2.ram.text_10>:
   83d68:	48000040 	.word	0x48000040

00083d6c <SOCPS_SleepPG_RAM>:
   83d6c:	b5f8      	push	{r3, r4, r5, r6, r7, lr}
   83d6e:	f7ff fef5 	bl	83b5c <?Veneer 16 (3) for pinmap_sleep>
   83d72:	2000      	movs	r0, #0
   83d74:	f7ff fefa 	bl	83b6c <?Veneer 17 (3) for km4_flash_highspeed_suspend>
   83d78:	4842      	ldr	r0, [pc, #264]	; (83e84 <.image2.ram.text_18>)
   83d7a:	68c0      	ldr	r0, [r0, #12]
   83d7c:	b110      	cbz	r0, 83d84 <SOCPS_SleepPG_RAM+0x18>
   83d7e:	2000      	movs	r0, #0
   83d80:	f7ff fbf0 	bl	83564 <?Veneer 12 (3) for SOCPS_OSC2M_Cmd>
   83d84:	2001      	movs	r0, #1
   83d86:	f77e fa17 	bl	21b8 <FLASH_Erase+0x71>
   83d8a:	2000      	movs	r0, #0
   83d8c:	f7ff ff31 	bl	83bf2 <SOCPS_AudioLDO>
   83d90:	4e62      	ldr	r6, [pc, #392]	; (83f1c <.image2.ram.text_35>)
   83d92:	68b0      	ldr	r0, [r6, #8]
   83d94:	2501      	movs	r5, #1
   83d96:	43ed      	mvns	r5, r5
   83d98:	4028      	ands	r0, r5
   83d9a:	60b0      	str	r0, [r6, #8]
   83d9c:	f240 3700 	movw	r7, #768	; 0x300
   83da0:	2200      	movs	r2, #0
   83da2:	0039      	movs	r1, r7
   83da4:	485e      	ldr	r0, [pc, #376]	; (83f20 <.image2.ram.text_36>)
   83da6:	f781 f8af 	bl	4f08 <FLASH_Calibration+0x137>
   83daa:	4c58      	ldr	r4, [pc, #352]	; (83f0c <.image2.ram.text_31>)
   83dac:	6820      	ldr	r0, [r4, #0]
   83dae:	2180      	movs	r1, #128	; 0x80
   83db0:	02c9      	lsls	r1, r1, #11
   83db2:	4301      	orrs	r1, r0
   83db4:	6021      	str	r1, [r4, #0]
   83db6:	200c      	movs	r0, #12
   83db8:	4381      	bics	r1, r0
   83dba:	6021      	str	r1, [r4, #0]
   83dbc:	6830      	ldr	r0, [r6, #0]
   83dbe:	2102      	movs	r1, #2
   83dc0:	4005      	ands	r5, r0
   83dc2:	430d      	orrs	r5, r1
   83dc4:	6035      	str	r5, [r6, #0]
   83dc6:	bf30      	wfi
   83dc8:	bf00      	nop
   83dca:	6920      	ldr	r0, [r4, #16]
   83dcc:	4301      	orrs	r1, r0
   83dce:	6121      	str	r1, [r4, #16]
   83dd0:	6820      	ldr	r0, [r4, #0]
   83dd2:	2104      	movs	r1, #4
   83dd4:	4301      	orrs	r1, r0
   83dd6:	6021      	str	r1, [r4, #0]
   83dd8:	2201      	movs	r2, #1
   83dda:	0039      	movs	r1, r7
   83ddc:	4850      	ldr	r0, [pc, #320]	; (83f20 <.image2.ram.text_36>)
   83dde:	f781 f893 	bl	4f08 <FLASH_Calibration+0x137>
   83de2:	f7ff fa01 	bl	831e8 <FLASH_Invalidate_Auto_Write>
   83de6:	484f      	ldr	r0, [pc, #316]	; (83f24 <.image2.ram.text_37>)
   83de8:	7900      	ldrb	r0, [r0, #4]
   83dea:	f77e fb79 	bl	24e0 <FLASH_StructInit+0x8f>
   83dee:	f000 f84b 	bl	83e88 <.image2.ram.text_19>
   83df2:	484d      	ldr	r0, [pc, #308]	; (83f28 <.image2.ram.text_38>)
   83df4:	2200      	movs	r2, #0
   83df6:	6002      	str	r2, [r0, #0]
   83df8:	f000 f846 	bl	83e88 <.image2.ram.text_19>
   83dfc:	494b      	ldr	r1, [pc, #300]	; (83f2c <.image2.ram.text_39>)
   83dfe:	680b      	ldr	r3, [r1, #0]
   83e00:	2580      	movs	r5, #128	; 0x80
   83e02:	02ad      	lsls	r5, r5, #10
   83e04:	431d      	orrs	r5, r3
   83e06:	600d      	str	r5, [r1, #0]
   83e08:	f000 f83e 	bl	83e88 <.image2.ram.text_19>
   83e0c:	670a      	str	r2, [r1, #112]	; 0x70
   83e0e:	f3bf 8f4f 	dsb	sy
   83e12:	6eca      	ldr	r2, [r1, #108]	; 0x6c
   83e14:	0113      	lsls	r3, r2, #4
   83e16:	0c5b      	lsrs	r3, r3, #17
   83e18:	04d5      	lsls	r5, r2, #19
   83e1a:	0dad      	lsrs	r5, r5, #22
   83e1c:	015f      	lsls	r7, r3, #5
   83e1e:	f643 76e0 	movw	r6, #16352	; 0x3fe0
   83e22:	403e      	ands	r6, r7
   83e24:	07ef      	lsls	r7, r5, #31
   83e26:	4337      	orrs	r7, r6
   83e28:	6107      	str	r7, [r0, #16]
   83e2a:	002e      	movs	r6, r5
   83e2c:	1e75      	subs	r5, r6, #1
   83e2e:	2e00      	cmp	r6, #0
   83e30:	d1f4      	bne.n	83e1c <SOCPS_SleepPG_RAM+0xb0>
   83e32:	001d      	movs	r5, r3
   83e34:	1e6b      	subs	r3, r5, #1
   83e36:	2d00      	cmp	r5, #0
   83e38:	d1ee      	bne.n	83e18 <SOCPS_SleepPG_RAM+0xac>
   83e3a:	f3bf 8f4f 	dsb	sy
   83e3e:	6808      	ldr	r0, [r1, #0]
   83e40:	2280      	movs	r2, #128	; 0x80
   83e42:	0252      	lsls	r2, r2, #9
   83e44:	4302      	orrs	r2, r0
   83e46:	600a      	str	r2, [r1, #0]
   83e48:	f000 f81e 	bl	83e88 <.image2.ram.text_19>
   83e4c:	2000      	movs	r0, #0
   83e4e:	f77e f9b3 	bl	21b8 <FLASH_Erase+0x71>
   83e52:	6820      	ldr	r0, [r4, #0]
   83e54:	4930      	ldr	r1, [pc, #192]	; (83f18 <.image2.ram.text_34>)
   83e56:	4001      	ands	r1, r0
   83e58:	2008      	movs	r0, #8
   83e5a:	4308      	orrs	r0, r1
   83e5c:	6020      	str	r0, [r4, #0]
   83e5e:	f7ff fc31 	bl	836c4 <SOCPS_MMUReFill>
   83e62:	2000      	movs	r0, #0
   83e64:	f7ff fb46 	bl	834f4 <?Veneer 5 (3) for km4_flash_highspeed_resume>
   83e68:	bdf1      	pop	{r0, r4, r5, r6, r7, pc}
	...

00083e6c <.image2.ram.text_12>:
   83e6c:	48000300 	.word	0x48000300

00083e70 <.image2.ram.text_13>:
   83e70:	48000058 	.word	0x48000058

00083e74 <.image2.ram.text_14>:
   83e74:	48000344 	.word	0x48000344

00083e78 <.image2.ram.text_15>:
   83e78:	fffffefe 	.word	0xfffffefe

00083e7c <.image2.ram.text_16>:
   83e7c:	48000280 	.word	0x48000280

00083e80 <.image2.ram.text_17>:
   83e80:	00083f74 	.word	0x00083f74

00083e84 <.image2.ram.text_18>:
   83e84:	000845e0 	.word	0x000845e0

00083e88 <.image2.ram.text_19>:
   83e88:	f3bf 8f4f 	dsb	sy
   83e8c:	f3bf 8f6f 	isb	sy
   83e90:	4770      	bx	lr
	...

00083e94 <SOCPS_DeepSleep_RAM>:
   83e94:	b580      	push	{r7, lr}
   83e96:	4826      	ldr	r0, [pc, #152]	; (83f30 <.image2.ram.text_40>)
   83e98:	6800      	ldr	r0, [r0, #0]
   83e9a:	0380      	lsls	r0, r0, #14
   83e9c:	d503      	bpl.n	83ea6 <SOCPS_DeepSleep_RAM+0x12>
   83e9e:	bf00      	nop
   83ea0:	a026      	add	r0, pc, #152	; (adr r0, 83f3c <.image2.ram.text_43>)
   83ea2:	f77c fae7 	bl	474 <DiagVSprintf+0x35f>
   83ea6:	f7ff fe69 	bl	83b7c <?Veneer 18 (3) for SOCPS_DsleepInit>
   83eaa:	f7ff fe6f 	bl	83b8c <?Veneer 19 (3) for pinmap_deepsleep>
   83eae:	f7ff fe98 	bl	83be2 <SOCPS_ClearWakeEvent>
   83eb2:	2001      	movs	r0, #1
   83eb4:	f77e f980 	bl	21b8 <FLASH_Erase+0x71>
   83eb8:	2090      	movs	r0, #144	; 0x90
   83eba:	05c0      	lsls	r0, r0, #23
   83ebc:	6941      	ldr	r1, [r0, #20]
   83ebe:	4a1d      	ldr	r2, [pc, #116]	; (83f34 <.image2.ram.text_41>)
   83ec0:	400a      	ands	r2, r1
   83ec2:	0c41      	lsrs	r1, r0, #17
   83ec4:	4311      	orrs	r1, r2
   83ec6:	6141      	str	r1, [r0, #20]
   83ec8:	6801      	ldr	r1, [r0, #0]
   83eca:	4a1b      	ldr	r2, [pc, #108]	; (83f38 <.image2.ram.text_42>)
   83ecc:	400a      	ands	r2, r1
   83ece:	6002      	str	r2, [r0, #0]
   83ed0:	4812      	ldr	r0, [pc, #72]	; (83f1c <.image2.ram.text_35>)
   83ed2:	6801      	ldr	r1, [r0, #0]
   83ed4:	2202      	movs	r2, #2
   83ed6:	4391      	bics	r1, r2
   83ed8:	2201      	movs	r2, #1
   83eda:	430a      	orrs	r2, r1
   83edc:	6002      	str	r2, [r0, #0]
   83ede:	bf30      	wfi
   83ee0:	bd01      	pop	{r0, pc}
	...

00083ee4 <.image2.ram.text_21>:
   83ee4:	fffff0ff 	.word	0xfffff0ff

00083ee8 <.image2.ram.text_22>:
   83ee8:	48000304 	.word	0x48000304

00083eec <.image2.ram.text_23>:
   83eec:	00089cd4 	.word	0x00089cd4

00083ef0 <.image2.ram.text_24>:
   83ef0:	ffff9fff 	.word	0xffff9fff

00083ef4 <.image2.ram.text_25>:
   83ef4:	48000224 	.word	0x48000224

00083ef8 <.image2.ram.text_26>:
   83ef8:	48000010 	.word	0x48000010

00083efc <.image2.ram.text_27>:
   83efc:	ffffc3ff 	.word	0xffffc3ff

00083f00 <.image2.ram.text_28>:
   83f00:	ffff0fff 	.word	0xffff0fff

00083f04 <.image2.ram.text_29>:
   83f04:	ffffc1ff 	.word	0xffffc1ff

00083f08 <.image2.ram.text_30>:
   83f08:	fffe0fff 	.word	0xfffe0fff

00083f0c <.image2.ram.text_31>:
   83f0c:	48000200 	.word	0x48000200

00083f10 <.image2.ram.text_32>:
   83f10:	00083fa8 	.word	0x00083fa8

00083f14 <.image2.ram.text_33>:
   83f14:	48002280 	.word	0x48002280

00083f18 <.image2.ram.text_34>:
   83f18:	fffbffff 	.word	0xfffbffff

00083f1c <.image2.ram.text_35>:
   83f1c:	48000318 	.word	0x48000318

00083f20 <.image2.ram.text_36>:
   83f20:	c0000100 	.word	0xc0000100

00083f24 <.image2.ram.text_37>:
   83f24:	000801f8 	.word	0x000801f8

00083f28 <.image2.ram.text_38>:
   83f28:	e000ef50 	.word	0xe000ef50

00083f2c <.image2.ram.text_39>:
   83f2c:	e000ed14 	.word	0xe000ed14

00083f30 <.image2.ram.text_40>:
   83f30:	000801cc 	.word	0x000801cc

00083f34 <.image2.ram.text_41>:
   83f34:	ffff43ff 	.word	0xffff43ff

00083f38 <.image2.ram.text_42>:
   83f38:	feffffff 	.word	0xfeffffff

00083f3c <.image2.ram.text_43>:
   83f3c:	44304d0d 	.word	0x44304d0d
   83f40:	000a2053 	.word	0x000a2053

00083f44 <?Veneer 4 (3) for TaskIdle_8721D>:
   83f44:	b408      	push	{r3}
   83f46:	4b02      	ldr	r3, [pc, #8]	; (83f50 <?Veneer 4 (3) for TaskIdle_8721D+0xc>)
   83f48:	469c      	mov	ip, r3
   83f4a:	bc08      	pop	{r3}
   83f4c:	4760      	bx	ip
   83f4e:	46c0      	nop			; (mov r8, r8)
   83f50:	0c004f09 	.word	0x0c004f09

00083f54 <app_taskidle_handler>:
   83f54:	f7ff bff6 	b.w	83f44 <?Veneer 4 (3) for TaskIdle_8721D>

00083f58 <xHeapRegions>:
   83f58:	0a00 0008 1600 0000 492c 0008 5000 0000     ........,I...P..
	...

00083f70 <uxCriticalNesting>:
   83f70:	aaaa aaaa                                   ....

00083f74 <wifi_config>:
	...
   83f7c:	0001 0000 0001 0000                         ........

00083f84 <__bss_start__>:
   83f84:	0000 0000                                   ....

00083f88 <__bss_end__>:
   83f88:	0000 0000                                   ....

00083f8c <cal_ok_log>:
   83f8c:	6163 696c 7262 7461 6f69 5f6e 6b6f 5b3a     calibration_ok:[
   83f9c:	6425 253a 3a64 6425 205d 000a               %d:%d:%d] ..

00083fa8 <km4_sleep_type>:
   83fa8:	0000 0000                                   ....

00083fac <KM4SleepTick>:
   83fac:	0000 0000                                   ....

00083fb0 <km4_sleep_timeout>:
   83fb0:	ffff ffff                                   ....

00083fb4 <km4_wake_event>:
   83fb4:	0000 0000                                   ....

00083fb8 <SYSPLL_ON_SEQ>:
   83fb8:	0208 4800 ff01 ffff 0000 0000 0000 1000     ...H............
   83fc8:	0280 4800 ff01 ffff 0000 0000 0003 0000     ...H............
   83fd8:	0000 0000 ff03 ffff 0000 0000 0004 0000     ................
   83fe8:	0280 4800 ff01 ffff 0000 0000 0004 0000     ...H............
   83ff8:	02b0 4800 ff01 ffff 0000 0000 0000 8000     ...H............
   84008:	0000 0000 ff03 ffff 0000 0000 0004 0000     ................
   84018:	0264 4800 ff01 ffff 0000 2000 0000 0000     d..H....... ....
   84028:	02b0 4800 ff01 ffff 0000 0000 0000 6000     ...H...........`
   84038:	0200 4800 ff01 ffff 0000 0020 0000 0000     ...H...... .....
   84048:	03f4 4800 ff02 ffff 1000 0000 1000 0000     ...H............
   84058:	02b0 4800 ff01 ffff 0000 0000 0100 0000     ...H............
   84068:	ffff ffff ffff ffff 0000 0000 0000 0000     ................

00084078 <SYSPLL_OFF_SEQ>:
   84078:	02b0 4800 ff01 ffff 0100 0000 0000 0000     ...H............
   84088:	0200 4800 ff01 ffff 0000 0000 0000 0020     ...H.......... .
   84098:	0264 4800 ff01 ffff 0000 0000 0000 2000     d..H........... 
   840a8:	02b0 4800 ff01 ffff 0000 e000 0000 0000     ...H............
   840b8:	ffff ffff ffff ffff 0000 0000 0000 0000     ................

000840c8 <HSPWR_ON_SEQ>:
   840c8:	021c 4800 ff01 ffff 0011 0000 0000 0000     ...H............
   840d8:	0000 0000 ff08 ffff 0000 0000 0000 0000     ................
   840e8:	0200 4800 ff01 ffff 0000 0000 0002 0000     ...H............
   840f8:	0200 4800 ff01 ffff 0000 0000 0004 0000     ...H............
   84108:	0000 0000 ff03 ffff 0000 0000 00c8 0000     ................
   84118:	0200 4800 ff01 ffff 0000 0000 0008 0000     ...H............
   84128:	0200 4800 ff01 ffff 0000 0006 0000 0000     ...H............
   84138:	021c 4800 ff01 ffff 0000 0000 0001 0000     ...H............
   84148:	021c 4800 ff01 ffff 0000 0000 0010 0000     ...H............
   84158:	021c 4800 ff01 ffff 0000 01ff 0000 0101     ...H............
   84168:	021c 4800 ff01 ffff 0000 0000 000e 0000     ...H............
   84178:	021c 4800 ff01 ffff 0000 0e00 0000 0000     ...H............
   84188:	0b08 4800 ff01 ffff ffff ffff 0000 0000     ...H............
   84198:	0314 4800 ff01 ffff 0000 0000 0001 0000     ...H............
   841a8:	0200 4000 ff01 ffff 0000 0000 0000 0002     ...@............
   841b8:	0210 4000 ff01 ffff 0000 0000 0000 0002     ...@............
   841c8:	ffff ffff ffff ffff 0000 0000 0000 0000     ................

000841d8 <HSCLK_GATE_SEQ>:
   841d8:	021c 4800 ff01 ffff 0000 0000 0000 0002     ...H............
   841e8:	0000 0000 ff03 ffff 0000 0000 0014 0000     ................
   841f8:	021c 4800 ff01 ffff 0000 0001 0000 0000     ...H............
   84208:	021c 4800 ff01 ffff 0000 0100 0000 0000     ...H............
   84218:	021c 4800 ff01 ffff 0010 0000 000f 0000     ...H............
   84228:	ffff ffff ffff ffff 0000 0000 0000 0000     ................

00084238 <HSCLK_ON_SEQ>:
   84238:	0b08 4800 ff01 ffff ffff ffff 0000 0000     ...H............
   84248:	021c 4800 ff01 ffff 0000 0000 0010 0000     ...H............
   84258:	021c 4800 ff01 ffff 0000 0000 0000 0100     ...H............
   84268:	021c 4800 ff01 ffff 0000 0000 0000 0001     ...H............
   84278:	021c 4800 ff01 ffff 0000 0002 0000 0000     ...H............
   84288:	ffff ffff ffff ffff 0000 0000 0000 0000     ................

00084298 <HSPWR_GATE_SEQ>:
   84298:	0208 4000 ff01 ffff 0002 0000 0000 0000     ...@............
   842a8:	021c 4800 ff01 ffff 0000 0000 0000 0002     ...H............
   842b8:	0000 0000 ff03 ffff 0000 0000 0014 0000     ................
   842c8:	021c 4800 ff01 ffff 0000 0001 0000 0000     ...H............
   842d8:	021c 4800 ff01 ffff 0000 0100 0000 0000     ...H............
   842e8:	021c 4800 ff01 ffff 001f 0000 0001 0000     ...H............
   842f8:	ffff ffff ffff ffff 0000 0000 0000 0000     ................

00084308 <HSPWR_WAKE_SEQ>:
   84308:	0b08 4800 ff01 ffff ffff ffff 0000 0000     ...H............
   84318:	0200 4800 ff01 ffff 0000 0000 0004 0000     ...H............
   84328:	0000 0000 ff03 ffff 0000 0000 00c8 0000     ................
   84338:	0200 4800 ff01 ffff 0000 0000 0008 0000     ...H............
   84348:	0200 4800 ff01 ffff 0000 0004 0000 0000     ...H............
   84358:	021c 4800 ff01 ffff 0000 0000 0010 0000     ...H............
   84368:	021c 4800 ff01 ffff 0000 0000 0000 0100     ...H............
   84378:	021c 4800 ff01 ffff 0000 0000 0000 0001     ...H............
   84388:	021c 4800 ff01 ffff 0000 0002 0000 0000     ...H............
   84398:	021c 4800 ff01 ffff 0000 0000 000e 0000     ...H............
   843a8:	0208 4000 ff01 ffff 0000 0000 0002 0000     ...@............
   843b8:	ffff ffff ffff ffff 0000 0000 0000 0000     ................

000843c8 <sleep_wevent_config>:
   843c8:	0000 4000 0000 0000 0000 2000 0001 0000     ...@....... ....
   843d8:	0000 1000 0000 0000 0000 0800 0000 0000     ................
   843e8:	0000 0400 0000 0000 0000 0100 0000 0000     ................
   843f8:	0000 0010 0001 0000 0040 0000 0000 0000     ........@.......
   84408:	0020 0000 0001 0000 0010 0000 0000 0000      ...............
   84418:	0004 0000 0000 0000 0002 0000 0000 0000     ................
   84428:	ffff ffff 0000 0000                         ........

00084430 <sleep_aon_wevent_config>:
   84430:	0080 0000 0001 0000 0040 0000 0001 0000     ........@.......
   84440:	0010 0000 0001 0000 0008 0000 0000 0000     ................
   84450:	0004 0000 0000 0000 0002 0000 0001 0000     ................
   84460:	0001 0000 0001 0000 ffff ffff 0000 0000     ................

00084470 <hs_wakeevent_config>:
   84470:	0304 0000 0000 4000 0001 0000 0304 0000     .......@........
   84480:	0000 2000 0000 0000 0304 0000 0000 1000     ... ............
   84490:	0000 0000 0304 0000 0000 0800 0000 0000     ................
   844a0:	0304 0000 0000 0400 0000 0000 0304 0000     ................
   844b0:	0000 0100 0000 0000 0304 0000 0000 0010     ................
   844c0:	0000 0000 0304 0000 0040 0000 0000 0000     ........@.......
   844d0:	0304 0000 0020 0000 0000 0000 0304 0000     .... ...........
   844e0:	0010 0000 0000 0000 0304 0000 0004 0000     ................
   844f0:	0000 0000 0304 0000 0002 0000 0000 0000     ................
   84500:	005c 0000 0080 0000 0000 0000 005c 0000     \...........\...
   84510:	0040 0000 0001 0000 005c 0000 0010 0000     @.......\.......
   84520:	0001 0000 005c 0000 0008 0000 0000 0000     ....\...........
   84530:	005c 0000 0004 0000 0001 0000 005c 0000     \...........\...
   84540:	0002 0000 0000 0000 005c 0000 0001 0000     ........\.......
   84550:	0001 0000 ffff ffff 0000 0000 0000 0000     ................

00084560 <dsleep_aon_wevent_config>:
   84560:	0040 0000 0001 0000 0010 0000 0001 0000     @...............
   84570:	0008 0000 0001 0000 0004 0000 0000 0000     ................
   84580:	0002 0000 0001 0000 0001 0000 0001 0000     ................
   84590:	ffff ffff 0000 0000                         ........

00084598 <aon_wakepin>:
   84598:	100c 0d14 1511 120e 0f19 1a13               ............

000845a4 <sleep_wakepin_config>:
	...
   845ac:	0001 0000 0000 0000 0000 0000 0001 0000     ................
	...
   845c4:	0001 0000 0000 0000 0000 0000 0001 0000     ................
   845d4:	ffff ffff 0000 0000 0000 0000               ............

000845e0 <ps_config>:
   845e0:	0001 0000 0000 0000 0000 0000 0001 0000     ................
	...
   845f8:	0001 0000 0000 0000 0000 0000 0000 0000     ................
	...

00084618 <SystemCoreClock>:
   84618:	2d00 0131                                   .-1.

0008461c <__cmd_table_start__>:
   8461c:	0000 0000                                   ....

00084620 <__cmd_table_end__>:
   84620:	0000 0000                                   ....

00084624 <missing_tick>:
   84624:	0000 0000                                   ....

00084628 <wakelock>:
   84628:	0001 0000                                   ....

0008462c <sleepwakelock_timeout>:
   8462c:	0000 0000                                   ....

00084630 <sleep_type>:
   84630:	0000 0000                                   ....

00084634 <sysactive_timeout_temp>:
   84634:	0000 0000                                   ....

00084638 <sysactive_timeout_flag>:
   84638:	0000 0000                                   ....

0008463c <system_can_yield>:
   8463c:	0001 0000                                   ....

00084640 <deepwakelock>:
   84640:	0001 0000                                   ....

00084644 <deepwakelock_timeout>:
   84644:	0000 0000                                   ....

00084648 <wifi_enable>:
	...

00084649 <wifi_disable>:
	...

0008464a <wifi_first_boot>:
   8464a:	0001                                             .

0008464b <wifi_is_enable>:
	...

0008464c <TaskIdle_8721D::PCToggle>:
   8464c:	0000 0000                                   ....

00084650 <fw_comm_sema>:
   84650:	0000 0000                                   ....

00084654 <fw_ipc_cmd_sema>:
   84654:	0000 0000                                   ....

00084658 <km0_pwrmgt_config>:
   84658:	0002 0000 0000 0000 0004 0000 0000 0000     ................
   84668:	0008 0000 0000 0000 0010 0000 0000 0000     ................
   84678:	0020 0000 0000 0000 0040 0000 0001 0000      .......@.......
   84688:	0080 0000 0000 0000 0100 0000 0001 0000     ................
   84698:	0200 0000 0000 0000 0400 0000 0001 0000     ................
   846a8:	ffff ffff 0000 0000                         ........

000846b0 <sleep_hsram_config>:
   846b0:	0000 8000 0000 0000 0000 4000 0000 0000     ...........@....
   846c0:	0000 2000 0000 0000 0000 1000 0001 0000     ... ............
   846d0:	0000 0400 0000 0000 0000 0200 0000 0000     ................
   846e0:	0000 0100 0000 0000 0000 0040 0000 0000     ..........@.....
   846f0:	0000 0020 0000 0000 0000 0010 0000 0000     .. .............
   84700:	0000 0004 0000 0000 0000 0002 0001 0000     ................
   84710:	0000 0001 0000 0000 4000 0000 0000 0000     .........@......
   84720:	2000 0000 0001 0000 1000 0000 0000 0000     . ..............
   84730:	0400 0000 0000 0000 0200 0000 0001 0000     ................
   84740:	0100 0000 0000 0000 0040 0000 0000 0000     ........@.......
   84750:	0020 0000 0000 0000 0010 0000 0000 0000      ...............
   84760:	0004 0000 0000 0000 0002 0000 0000 0000     ................
   84770:	0001 0000 0000 0000 ffff ffff 0000 0000     ................

00084780 <sleep_lsram_config>:
   84780:	0000 0040 0000 0000 0000 0020 0001 0000     ..@....... .....
   84790:	0000 0010 0000 0000 0000 0008 0001 0000     ................
   847a0:	0000 0004 0001 0000 0000 0002 0000 0000     ................
   847b0:	0000 0001 0000 0000 0040 0000 0000 0000     ........@.......
   847c0:	0020 0000 0000 0000 0010 0000 0000 0000      ...............
   847d0:	0008 0000 0000 0000 0004 0000 0000 0000     ................
   847e0:	0002 0000 0000 0000 0001 0000 0000 0000     ................
   847f0:	ffff ffff 0000 0000                         ........

000847f8 <dsleep_lsram_config>:
   847f8:	0004 0000 0000 0000 0002 0000 0001 0000     ................
   84808:	0001 0000 0000 0000 ffff ffff 0000 0000     ................

00084818 <ARFB_table>:
   84818:	f01f 0fff 0000 0f00 0ff0 0000 0000 f00f     ................
   84828:	0fff 0000 0f00 0ff0 0000 0000 f010 0fff     ................
   84838:	0000 1000 0ff0 0000 0000 0ff5 0000 0000     ................
   84848:	f000 000f 0000 0000 000d 0000 0000 1000     ................
   84858:	fff0 00ff 0000 e00c 000f 0000 0000 0000     ................

00084868 <RATE_UP_FAIL_WAITING>:
   84868:	0402 1008 1410 1c18 201c 2020 1410 1c18     .........   ....
   84878:	201c 2020                                   .   

0008487c <DIFF2VAR_TABLE>:
   8487c:	0706 0908 0b0a 0d0c 0e0e 0000               ............

00084888 <RATE_DOWN_PROB>:
   84888:	3232 3224 4332 434b 434b 594b 3232 4b43     22$22CKCKCKY22CK
   84898:	4b43 5a59                                   CKYZ

0008489c <RATE_DOWN_PROB_SGI2LGI>:
   8489c:	3232 3224 4332 434b 434b 594b 5858 5858     22$22CKCKCKYXXXX
   848ac:	5858 5858                                   XXXX

000848b0 <RATE_UP_PROB>:
   848b0:	5352 5554 5453 5655 5857 5a59 5756 5958     RSTUSTUVWXYZVWXY
   848c0:	5b5a 5d5c                                   Z[\]

000848c4 <DROPING_NECESSARY>:
   848c4:	0101 0101 0201 0403 0605 0807 0201 0403     ................
   848d4:	0605 0807                                   ....

000848d8 <TRYING_NECESSARY_idx>:
   848d8:	0000 0100 0000 0101 0201 0302 0100 0101     ................
   848e8:	0201 0302                                   ....

000848ec <NormalFWCmdTable>:
   848ec:	1568 0c01 0000 0000 a9e9 0c00 13b0 0c01     h...............
   848fc:	156c 0c01 0004 0000 a8e9 0c00 13d8 0c01     l...............
   8490c:	1570 0c01 0004 0000 ab19 0c00 1448 0c01     p...........H...
   8491c:	1574 0c01 0008 0000 ac65 0c00 14a0 0c01     t.......e.......

Disassembly of section A4 rw:

0c000020 <os_heap_init>:
 c000020:	4801      	ldr	r0, [pc, #4]	; (c000028 <os_heap_init+0x8>)
 c000022:	f000 b889 	b.w	c000138 <vPortDefineHeapRegions>
 c000026:	bf00      	nop
 c000028:	00083f58 	.word	0x00083f58

0c00002c <pvPortMalloc>:
 c00002c:	b5f8      	push	{r3, r4, r5, r6, r7, lr}
 c00002e:	0006      	movs	r6, r0
 c000030:	2400      	movs	r4, #0
 c000032:	2700      	movs	r7, #0
 c000034:	f000 f9b0 	bl	c000398 <vTaskSuspendAll>
 c000038:	4d58      	ldr	r5, [pc, #352]	; (c00019c <.text_11>)
 c00003a:	6968      	ldr	r0, [r5, #20]
 c00003c:	4030      	ands	r0, r6
 c00003e:	d13a      	bne.n	c0000b6 <.text_4>
 c000040:	2e00      	cmp	r6, #0
 c000042:	d038      	beq.n	c0000b6 <.text_4>
 c000044:	0030      	movs	r0, r6
 c000046:	3020      	adds	r0, #32
 c000048:	4286      	cmp	r6, r0
 c00004a:	d234      	bcs.n	c0000b6 <.text_4>
 c00004c:	211f      	movs	r1, #31
 c00004e:	4208      	tst	r0, r1
 c000050:	d006      	beq.n	c000060 <pvPortMalloc+0x34>
 c000052:	0002      	movs	r2, r0
 c000054:	3220      	adds	r2, #32
 c000056:	4001      	ands	r1, r0
 c000058:	1a51      	subs	r1, r2, r1
 c00005a:	4288      	cmp	r0, r1
 c00005c:	d22b      	bcs.n	c0000b6 <.text_4>
 c00005e:	0008      	movs	r0, r1
 c000060:	b348      	cbz	r0, c0000b6 <.text_4>
 c000062:	68e9      	ldr	r1, [r5, #12]
 c000064:	4281      	cmp	r1, r0
 c000066:	d326      	bcc.n	c0000b6 <.text_4>
 c000068:	0029      	movs	r1, r5
 c00006a:	682e      	ldr	r6, [r5, #0]
 c00006c:	6872      	ldr	r2, [r6, #4]
 c00006e:	4282      	cmp	r2, r0
 c000070:	d204      	bcs.n	c00007c <pvPortMalloc+0x50>
 c000072:	6832      	ldr	r2, [r6, #0]
 c000074:	b112      	cbz	r2, c00007c <pvPortMalloc+0x50>
 c000076:	0031      	movs	r1, r6
 c000078:	0016      	movs	r6, r2
 c00007a:	e7f7      	b.n	c00006c <pvPortMalloc+0x40>
 c00007c:	68aa      	ldr	r2, [r5, #8]
 c00007e:	4296      	cmp	r6, r2
 c000080:	d019      	beq.n	c0000b6 <.text_4>
 c000082:	680f      	ldr	r7, [r1, #0]
 c000084:	3720      	adds	r7, #32
 c000086:	6832      	ldr	r2, [r6, #0]
 c000088:	600a      	str	r2, [r1, #0]
 c00008a:	6871      	ldr	r1, [r6, #4]
 c00008c:	1a09      	subs	r1, r1, r0
 c00008e:	2941      	cmp	r1, #65	; 0x41
 c000090:	d305      	bcc.n	c00009e <pvPortMalloc+0x72>
 c000092:	1d32      	adds	r2, r6, #4
 c000094:	5011      	str	r1, [r2, r0]
 c000096:	6070      	str	r0, [r6, #4]
 c000098:	1830      	adds	r0, r6, r0
 c00009a:	f000 f829 	bl	c0000f0 <prvInsertBlockIntoFreeList>
 c00009e:	6870      	ldr	r0, [r6, #4]
 c0000a0:	68e9      	ldr	r1, [r5, #12]
 c0000a2:	1a09      	subs	r1, r1, r0
 c0000a4:	60e9      	str	r1, [r5, #12]
 c0000a6:	692a      	ldr	r2, [r5, #16]
 c0000a8:	4291      	cmp	r1, r2
 c0000aa:	d200      	bcs.n	c0000ae <pvPortMalloc+0x82>
 c0000ac:	6129      	str	r1, [r5, #16]
 c0000ae:	6969      	ldr	r1, [r5, #20]
 c0000b0:	4301      	orrs	r1, r0
 c0000b2:	6071      	str	r1, [r6, #4]
 c0000b4:	6034      	str	r4, [r6, #0]

0c0000b6 <.text_4>:
 c0000b6:	f000 f986 	bl	c0003c6 <xTaskResumeAll>
 c0000ba:	0038      	movs	r0, r7
 c0000bc:	bdf2      	pop	{r1, r4, r5, r6, r7, pc}

0c0000be <vPortFree>:
 c0000be:	b538      	push	{r3, r4, r5, lr}
 c0000c0:	0005      	movs	r5, r0
 c0000c2:	d014      	beq.n	c0000ee <vPortFree+0x30>
 c0000c4:	3d20      	subs	r5, #32
 c0000c6:	6868      	ldr	r0, [r5, #4]
 c0000c8:	4c34      	ldr	r4, [pc, #208]	; (c00019c <.text_11>)
 c0000ca:	6961      	ldr	r1, [r4, #20]
 c0000cc:	4208      	tst	r0, r1
 c0000ce:	d00e      	beq.n	c0000ee <vPortFree+0x30>
 c0000d0:	682a      	ldr	r2, [r5, #0]
 c0000d2:	b962      	cbnz	r2, c0000ee <vPortFree+0x30>
 c0000d4:	4388      	bics	r0, r1
 c0000d6:	6068      	str	r0, [r5, #4]
 c0000d8:	f000 f95e 	bl	c000398 <vTaskSuspendAll>
 c0000dc:	68e0      	ldr	r0, [r4, #12]
 c0000de:	6869      	ldr	r1, [r5, #4]
 c0000e0:	1840      	adds	r0, r0, r1
 c0000e2:	60e0      	str	r0, [r4, #12]
 c0000e4:	0028      	movs	r0, r5
 c0000e6:	f000 f803 	bl	c0000f0 <prvInsertBlockIntoFreeList>
 c0000ea:	f000 f96c 	bl	c0003c6 <xTaskResumeAll>
 c0000ee:	bd31      	pop	{r0, r4, r5, pc}

0c0000f0 <prvInsertBlockIntoFreeList>:
 c0000f0:	b430      	push	{r4, r5}
 c0000f2:	4a2a      	ldr	r2, [pc, #168]	; (c00019c <.text_11>)
 c0000f4:	0011      	movs	r1, r2
 c0000f6:	e000      	b.n	c0000fa <prvInsertBlockIntoFreeList+0xa>
 c0000f8:	0019      	movs	r1, r3
 c0000fa:	680b      	ldr	r3, [r1, #0]
 c0000fc:	4283      	cmp	r3, r0
 c0000fe:	d3fb      	bcc.n	c0000f8 <prvInsertBlockIntoFreeList+0x8>
 c000100:	684b      	ldr	r3, [r1, #4]
 c000102:	18cc      	adds	r4, r1, r3
 c000104:	4284      	cmp	r4, r0
 c000106:	d103      	bne.n	c000110 <prvInsertBlockIntoFreeList+0x20>
 c000108:	6840      	ldr	r0, [r0, #4]
 c00010a:	1818      	adds	r0, r3, r0
 c00010c:	6048      	str	r0, [r1, #4]
 c00010e:	0008      	movs	r0, r1
 c000110:	6844      	ldr	r4, [r0, #4]
 c000112:	680b      	ldr	r3, [r1, #0]
 c000114:	1905      	adds	r5, r0, r4
 c000116:	429d      	cmp	r5, r3
 c000118:	d108      	bne.n	c00012c <prvInsertBlockIntoFreeList+0x3c>
 c00011a:	6892      	ldr	r2, [r2, #8]
 c00011c:	4293      	cmp	r3, r2
 c00011e:	d004      	beq.n	c00012a <prvInsertBlockIntoFreeList+0x3a>
 c000120:	685a      	ldr	r2, [r3, #4]
 c000122:	18a2      	adds	r2, r4, r2
 c000124:	6042      	str	r2, [r0, #4]
 c000126:	681b      	ldr	r3, [r3, #0]
 c000128:	e000      	b.n	c00012c <prvInsertBlockIntoFreeList+0x3c>
 c00012a:	0013      	movs	r3, r2
 c00012c:	6003      	str	r3, [r0, #0]
 c00012e:	4281      	cmp	r1, r0
 c000130:	d000      	beq.n	c000134 <prvInsertBlockIntoFreeList+0x44>
 c000132:	6008      	str	r0, [r1, #0]
 c000134:	bc30      	pop	{r4, r5}
 c000136:	4770      	bx	lr

0c000138 <vPortDefineHeapRegions>:
 c000138:	b4f8      	push	{r3, r4, r5, r6, r7}
 c00013a:	2200      	movs	r2, #0
 c00013c:	2400      	movs	r4, #0
 c00013e:	2500      	movs	r5, #0
 c000140:	0006      	movs	r6, r0
 c000142:	4b16      	ldr	r3, [pc, #88]	; (c00019c <.text_11>)
 c000144:	9000      	str	r0, [sp, #0]
 c000146:	e01e      	b.n	c000186 <vPortDefineHeapRegions+0x4e>
 c000148:	6836      	ldr	r6, [r6, #0]
 c00014a:	0030      	movs	r0, r6
 c00014c:	06c7      	lsls	r7, r0, #27
 c00014e:	d004      	beq.n	c00015a <vPortDefineHeapRegions+0x22>
 c000150:	301f      	adds	r0, #31
 c000152:	271f      	movs	r7, #31
 c000154:	43b8      	bics	r0, r7
 c000156:	1a09      	subs	r1, r1, r0
 c000158:	1989      	adds	r1, r1, r6
 c00015a:	0007      	movs	r7, r0
 c00015c:	b90d      	cbnz	r5, c000162 <vPortDefineHeapRegions+0x2a>
 c00015e:	601f      	str	r7, [r3, #0]
 c000160:	605a      	str	r2, [r3, #4]
 c000162:	689e      	ldr	r6, [r3, #8]
 c000164:	1840      	adds	r0, r0, r1
 c000166:	3820      	subs	r0, #32
 c000168:	211f      	movs	r1, #31
 c00016a:	4388      	bics	r0, r1
 c00016c:	6098      	str	r0, [r3, #8]
 c00016e:	6042      	str	r2, [r0, #4]
 c000170:	6002      	str	r2, [r0, #0]
 c000172:	1bc1      	subs	r1, r0, r7
 c000174:	6079      	str	r1, [r7, #4]
 c000176:	6038      	str	r0, [r7, #0]
 c000178:	b106      	cbz	r6, c00017c <vPortDefineHeapRegions+0x44>
 c00017a:	6037      	str	r7, [r6, #0]
 c00017c:	1864      	adds	r4, r4, r1
 c00017e:	1c6d      	adds	r5, r5, #1
 c000180:	9800      	ldr	r0, [sp, #0]
 c000182:	00e9      	lsls	r1, r5, #3
 c000184:	1846      	adds	r6, r0, r1
 c000186:	6871      	ldr	r1, [r6, #4]
 c000188:	2900      	cmp	r1, #0
 c00018a:	d1dd      	bne.n	c000148 <vPortDefineHeapRegions+0x10>
 c00018c:	611c      	str	r4, [r3, #16]
 c00018e:	60dc      	str	r4, [r3, #12]
 c000190:	2080      	movs	r0, #128	; 0x80
 c000192:	0600      	lsls	r0, r0, #24
 c000194:	6158      	str	r0, [r3, #20]
 c000196:	bcf1      	pop	{r0, r4, r5, r6, r7}
 c000198:	4770      	bx	lr
	...

0c00019c <.text_11>:
 c00019c:	0008992c 	.word	0x0008992c

0c0001a0 <xTaskCreate>:
 c0001a0:	b5f6      	push	{r1, r2, r4, r5, r6, r7, lr}
 c0001a2:	b085      	sub	sp, #20
 c0001a4:	0007      	movs	r7, r0
 c0001a6:	000c      	movs	r4, r1
 c0001a8:	001d      	movs	r5, r3
 c0001aa:	0090      	lsls	r0, r2, #2
 c0001ac:	f7ff ff3e 	bl	c00002c <pvPortMalloc>
 c0001b0:	0006      	movs	r6, r0
 c0001b2:	d01d      	beq.n	c0001f0 <xTaskCreate+0x50>
 c0001b4:	205c      	movs	r0, #92	; 0x5c
 c0001b6:	f7ff ff39 	bl	c00002c <pvPortMalloc>
 c0001ba:	9004      	str	r0, [sp, #16]
 c0001bc:	b1a8      	cbz	r0, c0001ea <xTaskCreate+0x4a>
 c0001be:	9a0d      	ldr	r2, [sp, #52]	; 0x34
 c0001c0:	9b0c      	ldr	r3, [sp, #48]	; 0x30
 c0001c2:	0021      	movs	r1, r4
 c0001c4:	0038      	movs	r0, r7
 c0001c6:	9c04      	ldr	r4, [sp, #16]
 c0001c8:	6326      	str	r6, [r4, #48]	; 0x30
 c0001ca:	2400      	movs	r4, #0
 c0001cc:	9403      	str	r4, [sp, #12]
 c0001ce:	9c04      	ldr	r4, [sp, #16]
 c0001d0:	9402      	str	r4, [sp, #8]
 c0001d2:	9201      	str	r2, [sp, #4]
 c0001d4:	9300      	str	r3, [sp, #0]
 c0001d6:	002b      	movs	r3, r5
 c0001d8:	466a      	mov	r2, sp
 c0001da:	8b12      	ldrh	r2, [r2, #24]
 c0001dc:	f000 f80c 	bl	c0001f8 <prvInitialiseNewTask>
 c0001e0:	9804      	ldr	r0, [sp, #16]
 c0001e2:	f000 f84c 	bl	c00027e <prvAddNewTaskToReadyList>
 c0001e6:	2001      	movs	r0, #1
 c0001e8:	e004      	b.n	c0001f4 <xTaskCreate+0x54>
 c0001ea:	0030      	movs	r0, r6
 c0001ec:	f7ff ff67 	bl	c0000be <vPortFree>
 c0001f0:	2000      	movs	r0, #0
 c0001f2:	43c0      	mvns	r0, r0
 c0001f4:	b007      	add	sp, #28
 c0001f6:	bdf0      	pop	{r4, r5, r6, r7, pc}

0c0001f8 <prvInitialiseNewTask>:
 c0001f8:	b5f9      	push	{r0, r3, r4, r5, r6, r7, lr}
 c0001fa:	b081      	sub	sp, #4
 c0001fc:	000e      	movs	r6, r1
 c0001fe:	0015      	movs	r5, r2
 c000200:	9c0a      	ldr	r4, [sp, #40]	; 0x28
 c000202:	22a5      	movs	r2, #165	; 0xa5
 c000204:	00a9      	lsls	r1, r5, #2
 c000206:	6b20      	ldr	r0, [r4, #48]	; 0x30
 c000208:	f000 fb60 	bl	c0008cc <__aeabi_memset4>
 c00020c:	6b20      	ldr	r0, [r4, #48]	; 0x30
 c00020e:	00a9      	lsls	r1, r5, #2
 c000210:	1847      	adds	r7, r0, r1
 c000212:	1f3f      	subs	r7, r7, #4
 c000214:	201f      	movs	r0, #31
 c000216:	4387      	bics	r7, r0
 c000218:	6427      	str	r7, [r4, #64]	; 0x40
 c00021a:	0020      	movs	r0, r4
 c00021c:	3034      	adds	r0, #52	; 0x34
 c00021e:	2500      	movs	r5, #0
 c000220:	b166      	cbz	r6, c00023c <prvInitialiseNewTask+0x44>
 c000222:	2100      	movs	r1, #0
 c000224:	1872      	adds	r2, r6, r1
 c000226:	7813      	ldrb	r3, [r2, #0]
 c000228:	5443      	strb	r3, [r0, r1]
 c00022a:	2300      	movs	r3, #0
 c00022c:	56d2      	ldrsb	r2, [r2, r3]
 c00022e:	b112      	cbz	r2, c000236 <prvInitialiseNewTask+0x3e>
 c000230:	1c49      	adds	r1, r1, #1
 c000232:	290a      	cmp	r1, #10
 c000234:	d3f6      	bcc.n	c000224 <prvInitialiseNewTask+0x2c>
 c000236:	213d      	movs	r1, #61	; 0x3d
 c000238:	5465      	strb	r5, [r4, r1]
 c00023a:	e000      	b.n	c00023e <prvInitialiseNewTask+0x46>
 c00023c:	7005      	strb	r5, [r0, #0]
 c00023e:	9e08      	ldr	r6, [sp, #32]
 c000240:	2e0a      	cmp	r6, #10
 c000242:	d900      	bls.n	c000246 <prvInitialiseNewTask+0x4e>
 c000244:	260a      	movs	r6, #10
 c000246:	62e6      	str	r6, [r4, #44]	; 0x2c
 c000248:	64e6      	str	r6, [r4, #76]	; 0x4c
 c00024a:	6525      	str	r5, [r4, #80]	; 0x50
 c00024c:	1d20      	adds	r0, r4, #4
 c00024e:	f000 fb69 	bl	c000924 <vListInitialiseItem>
 c000252:	0020      	movs	r0, r4
 c000254:	3018      	adds	r0, #24
 c000256:	f000 fb65 	bl	c000924 <vListInitialiseItem>
 c00025a:	6124      	str	r4, [r4, #16]
 c00025c:	200b      	movs	r0, #11
 c00025e:	1b80      	subs	r0, r0, r6
 c000260:	61a0      	str	r0, [r4, #24]
 c000262:	6264      	str	r4, [r4, #36]	; 0x24
 c000264:	6565      	str	r5, [r4, #84]	; 0x54
 c000266:	2058      	movs	r0, #88	; 0x58
 c000268:	5425      	strb	r5, [r4, r0]
 c00026a:	9a02      	ldr	r2, [sp, #8]
 c00026c:	9901      	ldr	r1, [sp, #4]
 c00026e:	0038      	movs	r0, r7
 c000270:	f000 fba6 	bl	c0009c0 <pxPortInitialiseStack>
 c000274:	6020      	str	r0, [r4, #0]
 c000276:	9809      	ldr	r0, [sp, #36]	; 0x24
 c000278:	b100      	cbz	r0, c00027c <prvInitialiseNewTask+0x84>
 c00027a:	6004      	str	r4, [r0, #0]
 c00027c:	bdf7      	pop	{r0, r1, r2, r4, r5, r6, r7, pc}

0c00027e <prvAddNewTaskToReadyList>:
 c00027e:	b5f8      	push	{r3, r4, r5, r6, r7, lr}
 c000280:	0004      	movs	r4, r0
 c000282:	f000 fbd3 	bl	c000a2c <vPortEnterCritical>
 c000286:	4d30      	ldr	r5, [pc, #192]	; (c000348 <.text_17>)
 c000288:	6ce8      	ldr	r0, [r5, #76]	; 0x4c
 c00028a:	1c40      	adds	r0, r0, #1
 c00028c:	64e8      	str	r0, [r5, #76]	; 0x4c
 c00028e:	4f2f      	ldr	r7, [pc, #188]	; (c00034c <.text_18>)
 c000290:	6aa8      	ldr	r0, [r5, #40]	; 0x28
 c000292:	bb28      	cbnz	r0, c0002e0 <prvAddNewTaskToReadyList+0x62>
 c000294:	62ac      	str	r4, [r5, #40]	; 0x28
 c000296:	6ce8      	ldr	r0, [r5, #76]	; 0x4c
 c000298:	2801      	cmp	r0, #1
 c00029a:	d129      	bne.n	c0002f0 <prvAddNewTaskToReadyList+0x72>
 c00029c:	2600      	movs	r6, #0
 c00029e:	2014      	movs	r0, #20
 c0002a0:	4370      	muls	r0, r6
 c0002a2:	1838      	adds	r0, r7, r0
 c0002a4:	f000 fb2f 	bl	c000906 <vListInitialise>
 c0002a8:	1c76      	adds	r6, r6, #1
 c0002aa:	2e0b      	cmp	r6, #11
 c0002ac:	d3f7      	bcc.n	c00029e <prvAddNewTaskToReadyList+0x20>
 c0002ae:	0028      	movs	r0, r5
 c0002b0:	3074      	adds	r0, #116	; 0x74
 c0002b2:	f000 fb28 	bl	c000906 <vListInitialise>
 c0002b6:	002e      	movs	r6, r5
 c0002b8:	3688      	adds	r6, #136	; 0x88
 c0002ba:	0030      	movs	r0, r6
 c0002bc:	f000 fb23 	bl	c000906 <vListInitialise>
 c0002c0:	0028      	movs	r0, r5
 c0002c2:	f000 fb20 	bl	c000906 <vListInitialise>
 c0002c6:	0028      	movs	r0, r5
 c0002c8:	3014      	adds	r0, #20
 c0002ca:	f000 fb1c 	bl	c000906 <vListInitialise>
 c0002ce:	0028      	movs	r0, r5
 c0002d0:	3038      	adds	r0, #56	; 0x38
 c0002d2:	f000 fb18 	bl	c000906 <vListInitialise>
 c0002d6:	0028      	movs	r0, r5
 c0002d8:	3074      	adds	r0, #116	; 0x74
 c0002da:	62e8      	str	r0, [r5, #44]	; 0x2c
 c0002dc:	632e      	str	r6, [r5, #48]	; 0x30
 c0002de:	e007      	b.n	c0002f0 <prvAddNewTaskToReadyList+0x72>
 c0002e0:	6da8      	ldr	r0, [r5, #88]	; 0x58
 c0002e2:	b928      	cbnz	r0, c0002f0 <prvAddNewTaskToReadyList+0x72>
 c0002e4:	6ae0      	ldr	r0, [r4, #44]	; 0x2c
 c0002e6:	6aa9      	ldr	r1, [r5, #40]	; 0x28
 c0002e8:	6ac9      	ldr	r1, [r1, #44]	; 0x2c
 c0002ea:	4288      	cmp	r0, r1
 c0002ec:	d300      	bcc.n	c0002f0 <prvAddNewTaskToReadyList+0x72>
 c0002ee:	62ac      	str	r4, [r5, #40]	; 0x28
 c0002f0:	6ea8      	ldr	r0, [r5, #104]	; 0x68
 c0002f2:	1c40      	adds	r0, r0, #1
 c0002f4:	66a8      	str	r0, [r5, #104]	; 0x68
 c0002f6:	6460      	str	r0, [r4, #68]	; 0x44
 c0002f8:	6ae0      	ldr	r0, [r4, #44]	; 0x2c
 c0002fa:	6d69      	ldr	r1, [r5, #84]	; 0x54
 c0002fc:	4281      	cmp	r1, r0
 c0002fe:	d200      	bcs.n	c000302 <prvAddNewTaskToReadyList+0x84>
 c000300:	6568      	str	r0, [r5, #84]	; 0x54
 c000302:	1d21      	adds	r1, r4, #4
 c000304:	2214      	movs	r2, #20
 c000306:	4350      	muls	r0, r2
 c000308:	1838      	adds	r0, r7, r0
 c00030a:	f000 fb0e 	bl	c00092a <vListInsertEnd>
 c00030e:	f000 fb99 	bl	c000a44 <vPortExitCritical>
 c000312:	6da8      	ldr	r0, [r5, #88]	; 0x58
 c000314:	b120      	cbz	r0, c000320 <prvAddNewTaskToReadyList+0xa2>
 c000316:	f000 fa95 	bl	c000844 <.text_79>
 c00031a:	d201      	bcs.n	c000320 <prvAddNewTaskToReadyList+0xa2>
 c00031c:	f000 fb80 	bl	c000a20 <vPortYield>
 c000320:	bdf1      	pop	{r0, r4, r5, r6, r7, pc}

0c000322 <.text_8>:
 c000322:	0028      	movs	r0, r5
 c000324:	3018      	adds	r0, #24
 c000326:	f000 bb27 	b.w	c000978 <uxListRemove>

0c00032a <vTaskDelay>:
 c00032a:	b580      	push	{r7, lr}
 c00032c:	b148      	cbz	r0, c000342 <vTaskDelay+0x18>
 c00032e:	4906      	ldr	r1, [pc, #24]	; (c000348 <.text_17>)
 c000330:	6f0a      	ldr	r2, [r1, #112]	; 0x70
 c000332:	1c52      	adds	r2, r2, #1
 c000334:	670a      	str	r2, [r1, #112]	; 0x70
 c000336:	2100      	movs	r1, #0
 c000338:	f000 fa89 	bl	c00084e <prvAddCurrentTaskToDelayedList>
 c00033c:	f000 f843 	bl	c0003c6 <xTaskResumeAll>
 c000340:	b908      	cbnz	r0, c000346 <vTaskDelay+0x1c>
 c000342:	f000 fb6d 	bl	c000a20 <vPortYield>
 c000346:	bd01      	pop	{r0, pc}

0c000348 <.text_17>:
 c000348:	000899dc 	.word	0x000899dc

0c00034c <.text_18>:
 c00034c:	00089a7c 	.word	0x00089a7c

0c000350 <vTaskStartScheduler>:
 c000350:	b51c      	push	{r2, r3, r4, lr}
 c000352:	4c66      	ldr	r4, [pc, #408]	; (c0004ec <.text_36>)
 c000354:	0020      	movs	r0, r4
 c000356:	309c      	adds	r0, #156	; 0x9c
 c000358:	9001      	str	r0, [sp, #4]
 c00035a:	2000      	movs	r0, #0
 c00035c:	9000      	str	r0, [sp, #0]
 c00035e:	2300      	movs	r3, #0
 c000360:	f240 2200 	movw	r2, #512	; 0x200
 c000364:	a10a      	add	r1, pc, #40	; (adr r1, c000390 <.text_21>)
 c000366:	4884      	ldr	r0, [pc, #528]	; (c000578 <.text_42>)
 c000368:	f7ff ff1a 	bl	c0001a0 <xTaskCreate>
 c00036c:	2801      	cmp	r0, #1
 c00036e:	d101      	bne.n	c000374 <vTaskStartScheduler+0x24>
 c000370:	f000 fbba 	bl	c000ae8 <xTimerCreateTimerTask>
 c000374:	2801      	cmp	r0, #1
 c000376:	d109      	bne.n	c00038c <vTaskStartScheduler+0x3c>
 c000378:	b672      	cpsid	i
 c00037a:	2000      	movs	r0, #0
 c00037c:	43c0      	mvns	r0, r0
 c00037e:	66e0      	str	r0, [r4, #108]	; 0x6c
 c000380:	2001      	movs	r0, #1
 c000382:	65a0      	str	r0, [r4, #88]	; 0x58
 c000384:	2000      	movs	r0, #0
 c000386:	6520      	str	r0, [r4, #80]	; 0x50
 c000388:	f000 fb2a 	bl	c0009e0 <xPortStartScheduler>
 c00038c:	bd13      	pop	{r0, r1, r4, pc}
	...

0c000390 <.text_21>:
 c000390:	454c4449 	.word	0x454c4449
 c000394:	00000000 	.word	0x00000000

0c000398 <vTaskSuspendAll>:
 c000398:	4873      	ldr	r0, [pc, #460]	; (c000568 <.text_39>)
 c00039a:	6f01      	ldr	r1, [r0, #112]	; 0x70
 c00039c:	1c49      	adds	r1, r1, #1
 c00039e:	6701      	str	r1, [r0, #112]	; 0x70
 c0003a0:	4770      	bx	lr

0c0003a2 <prvGetExpectedIdleTime>:
 c0003a2:	2000      	movs	r0, #0
 c0003a4:	2200      	movs	r2, #0
 c0003a6:	4970      	ldr	r1, [pc, #448]	; (c000568 <.text_39>)
 c0003a8:	6d4b      	ldr	r3, [r1, #84]	; 0x54
 c0003aa:	b103      	cbz	r3, c0003ae <prvGetExpectedIdleTime+0xc>
 c0003ac:	2201      	movs	r2, #1
 c0003ae:	6a8b      	ldr	r3, [r1, #40]	; 0x28
 c0003b0:	6adb      	ldr	r3, [r3, #44]	; 0x2c
 c0003b2:	b93b      	cbnz	r3, c0003c4 <prvGetExpectedIdleTime+0x22>
 c0003b4:	4b8c      	ldr	r3, [pc, #560]	; (c0005e8 <.text_45>)
 c0003b6:	681b      	ldr	r3, [r3, #0]
 c0003b8:	2b01      	cmp	r3, #1
 c0003ba:	d803      	bhi.n	c0003c4 <prvGetExpectedIdleTime+0x22>
 c0003bc:	b912      	cbnz	r2, c0003c4 <prvGetExpectedIdleTime+0x22>
 c0003be:	6ec8      	ldr	r0, [r1, #108]	; 0x6c
 c0003c0:	6d09      	ldr	r1, [r1, #80]	; 0x50
 c0003c2:	1a40      	subs	r0, r0, r1
 c0003c4:	4770      	bx	lr

0c0003c6 <xTaskResumeAll>:
 c0003c6:	b5f8      	push	{r3, r4, r5, r6, r7, lr}
 c0003c8:	2700      	movs	r7, #0
 c0003ca:	2600      	movs	r6, #0
 c0003cc:	9700      	str	r7, [sp, #0]
 c0003ce:	f000 fb2d 	bl	c000a2c <vPortEnterCritical>
 c0003d2:	4c65      	ldr	r4, [pc, #404]	; (c000568 <.text_39>)
 c0003d4:	6f20      	ldr	r0, [r4, #112]	; 0x70
 c0003d6:	1e40      	subs	r0, r0, #1
 c0003d8:	6720      	str	r0, [r4, #112]	; 0x70
 c0003da:	6f20      	ldr	r0, [r4, #112]	; 0x70
 c0003dc:	bb38      	cbnz	r0, c00042e <xTaskResumeAll+0x68>
 c0003de:	6ce0      	ldr	r0, [r4, #76]	; 0x4c
 c0003e0:	b980      	cbnz	r0, c000404 <xTaskResumeAll+0x3e>
 c0003e2:	e024      	b.n	c00042e <xTaskResumeAll+0x68>
 c0003e4:	68e0      	ldr	r0, [r4, #12]
 c0003e6:	68c6      	ldr	r6, [r0, #12]
 c0003e8:	0030      	movs	r0, r6
 c0003ea:	f7ff ff9b 	bl	c000324 <.text_8+0x2>
 c0003ee:	1d30      	adds	r0, r6, #4
 c0003f0:	f000 fac2 	bl	c000978 <uxListRemove>
 c0003f4:	f000 f86e 	bl	c0004d4 <.text_35>
 c0003f8:	6af0      	ldr	r0, [r6, #44]	; 0x2c
 c0003fa:	6aa1      	ldr	r1, [r4, #40]	; 0x28
 c0003fc:	6ac9      	ldr	r1, [r1, #44]	; 0x2c
 c0003fe:	4288      	cmp	r0, r1
 c000400:	d300      	bcc.n	c000404 <xTaskResumeAll+0x3e>
 c000402:	6625      	str	r5, [r4, #96]	; 0x60
 c000404:	2501      	movs	r5, #1
 c000406:	6820      	ldr	r0, [r4, #0]
 c000408:	2800      	cmp	r0, #0
 c00040a:	d1eb      	bne.n	c0003e4 <xTaskResumeAll+0x1e>
 c00040c:	b10e      	cbz	r6, c000412 <xTaskResumeAll+0x4c>
 c00040e:	f000 f968 	bl	c0006e2 <prvResetNextTaskUnblockTime>
 c000412:	6de6      	ldr	r6, [r4, #92]	; 0x5c
 c000414:	b136      	cbz	r6, c000424 <xTaskResumeAll+0x5e>
 c000416:	f000 f817 	bl	c000448 <xTaskIncrementTick>
 c00041a:	b100      	cbz	r0, c00041e <xTaskResumeAll+0x58>
 c00041c:	6625      	str	r5, [r4, #96]	; 0x60
 c00041e:	1e76      	subs	r6, r6, #1
 c000420:	d1f9      	bne.n	c000416 <xTaskResumeAll+0x50>
 c000422:	65e7      	str	r7, [r4, #92]	; 0x5c
 c000424:	6e20      	ldr	r0, [r4, #96]	; 0x60
 c000426:	b110      	cbz	r0, c00042e <xTaskResumeAll+0x68>
 c000428:	9500      	str	r5, [sp, #0]
 c00042a:	f000 faf9 	bl	c000a20 <vPortYield>
 c00042e:	f000 fb09 	bl	c000a44 <vPortExitCritical>
 c000432:	9800      	ldr	r0, [sp, #0]
 c000434:	bdf2      	pop	{r1, r4, r5, r6, r7, pc}

0c000436 <xTaskGetTickCount>:
 c000436:	e7ff      	b.n	c000438 <.text_28>

0c000438 <.text_28>:
 c000438:	484b      	ldr	r0, [pc, #300]	; (c000568 <.text_39>)
 c00043a:	6d00      	ldr	r0, [r0, #80]	; 0x50
 c00043c:	4770      	bx	lr

0c00043e <vTaskStepTick>:
 c00043e:	494a      	ldr	r1, [pc, #296]	; (c000568 <.text_39>)
 c000440:	6d0a      	ldr	r2, [r1, #80]	; 0x50
 c000442:	1810      	adds	r0, r2, r0
 c000444:	6508      	str	r0, [r1, #80]	; 0x50
 c000446:	4770      	bx	lr

0c000448 <xTaskIncrementTick>:
 c000448:	b5f8      	push	{r3, r4, r5, r6, r7, lr}
 c00044a:	2500      	movs	r5, #0
 c00044c:	4c27      	ldr	r4, [pc, #156]	; (c0004ec <.text_36>)
 c00044e:	6f20      	ldr	r0, [r4, #112]	; 0x70
 c000450:	2800      	cmp	r0, #0
 c000452:	d137      	bne.n	c0004c4 <xTaskIncrementTick+0x7c>
 c000454:	6d27      	ldr	r7, [r4, #80]	; 0x50
 c000456:	1c7f      	adds	r7, r7, #1
 c000458:	6527      	str	r7, [r4, #80]	; 0x50
 c00045a:	d108      	bne.n	c00046e <xTaskIncrementTick+0x26>
 c00045c:	6ae0      	ldr	r0, [r4, #44]	; 0x2c
 c00045e:	6b21      	ldr	r1, [r4, #48]	; 0x30
 c000460:	62e1      	str	r1, [r4, #44]	; 0x2c
 c000462:	6320      	str	r0, [r4, #48]	; 0x30
 c000464:	6e60      	ldr	r0, [r4, #100]	; 0x64
 c000466:	1c40      	adds	r0, r0, #1
 c000468:	6660      	str	r0, [r4, #100]	; 0x64
 c00046a:	f000 f93a 	bl	c0006e2 <prvResetNextTaskUnblockTime>
 c00046e:	6ee0      	ldr	r0, [r4, #108]	; 0x6c
 c000470:	4287      	cmp	r7, r0
 c000472:	d31a      	bcc.n	c0004aa <xTaskIncrementTick+0x62>
 c000474:	e00f      	b.n	c000496 <xTaskIncrementTick+0x4e>
 c000476:	1d30      	adds	r0, r6, #4
 c000478:	f000 fa7e 	bl	c000978 <uxListRemove>
 c00047c:	6ab0      	ldr	r0, [r6, #40]	; 0x28
 c00047e:	b110      	cbz	r0, c000486 <xTaskIncrementTick+0x3e>
 c000480:	0030      	movs	r0, r6
 c000482:	f7ff ff4f 	bl	c000324 <.text_8+0x2>
 c000486:	f000 f825 	bl	c0004d4 <.text_35>
 c00048a:	6af0      	ldr	r0, [r6, #44]	; 0x2c
 c00048c:	6aa1      	ldr	r1, [r4, #40]	; 0x28
 c00048e:	6ac9      	ldr	r1, [r1, #44]	; 0x2c
 c000490:	4288      	cmp	r0, r1
 c000492:	d300      	bcc.n	c000496 <xTaskIncrementTick+0x4e>
 c000494:	2501      	movs	r5, #1
 c000496:	6ae0      	ldr	r0, [r4, #44]	; 0x2c
 c000498:	6800      	ldr	r0, [r0, #0]
 c00049a:	b180      	cbz	r0, c0004be <xTaskIncrementTick+0x76>
 c00049c:	6ae0      	ldr	r0, [r4, #44]	; 0x2c
 c00049e:	68c0      	ldr	r0, [r0, #12]
 c0004a0:	68c6      	ldr	r6, [r0, #12]
 c0004a2:	6870      	ldr	r0, [r6, #4]
 c0004a4:	4287      	cmp	r7, r0
 c0004a6:	d2e6      	bcs.n	c000476 <xTaskIncrementTick+0x2e>
 c0004a8:	66e0      	str	r0, [r4, #108]	; 0x6c
 c0004aa:	6aa0      	ldr	r0, [r4, #40]	; 0x28
 c0004ac:	494e      	ldr	r1, [pc, #312]	; (c0005e8 <.text_45>)
 c0004ae:	6ac0      	ldr	r0, [r0, #44]	; 0x2c
 c0004b0:	2214      	movs	r2, #20
 c0004b2:	4350      	muls	r0, r2
 c0004b4:	5808      	ldr	r0, [r1, r0]
 c0004b6:	2802      	cmp	r0, #2
 c0004b8:	d307      	bcc.n	c0004ca <xTaskIncrementTick+0x82>
 c0004ba:	2501      	movs	r5, #1
 c0004bc:	e005      	b.n	c0004ca <xTaskIncrementTick+0x82>
 c0004be:	2000      	movs	r0, #0
 c0004c0:	43c0      	mvns	r0, r0
 c0004c2:	e7f1      	b.n	c0004a8 <xTaskIncrementTick+0x60>
 c0004c4:	6de0      	ldr	r0, [r4, #92]	; 0x5c
 c0004c6:	1c40      	adds	r0, r0, #1
 c0004c8:	65e0      	str	r0, [r4, #92]	; 0x5c
 c0004ca:	6e20      	ldr	r0, [r4, #96]	; 0x60
 c0004cc:	b100      	cbz	r0, c0004d0 <xTaskIncrementTick+0x88>
 c0004ce:	2501      	movs	r5, #1
 c0004d0:	0028      	movs	r0, r5
 c0004d2:	bdf2      	pop	{r1, r4, r5, r6, r7, pc}

0c0004d4 <.text_35>:
 c0004d4:	6af0      	ldr	r0, [r6, #44]	; 0x2c
 c0004d6:	6d61      	ldr	r1, [r4, #84]	; 0x54
 c0004d8:	4281      	cmp	r1, r0
 c0004da:	d200      	bcs.n	c0004de <.text_35+0xa>
 c0004dc:	6560      	str	r0, [r4, #84]	; 0x54
 c0004de:	1d31      	adds	r1, r6, #4
 c0004e0:	4a41      	ldr	r2, [pc, #260]	; (c0005e8 <.text_45>)
 c0004e2:	2314      	movs	r3, #20
 c0004e4:	4358      	muls	r0, r3
 c0004e6:	1810      	adds	r0, r2, r0
 c0004e8:	f000 ba1f 	b.w	c00092a <vListInsertEnd>

0c0004ec <.text_36>:
 c0004ec:	000899dc 	.word	0x000899dc

0c0004f0 <vTaskSwitchContext>:
 c0004f0:	b510      	push	{r4, lr}
 c0004f2:	4c1d      	ldr	r4, [pc, #116]	; (c000568 <.text_39>)
 c0004f4:	6f20      	ldr	r0, [r4, #112]	; 0x70
 c0004f6:	b110      	cbz	r0, c0004fe <vTaskSwitchContext+0xe>
 c0004f8:	2001      	movs	r0, #1
 c0004fa:	6620      	str	r0, [r4, #96]	; 0x60
 c0004fc:	bd10      	pop	{r4, pc}
 c0004fe:	6620      	str	r0, [r4, #96]	; 0x60
 c000500:	6aa0      	ldr	r0, [r4, #40]	; 0x28
 c000502:	6b00      	ldr	r0, [r0, #48]	; 0x30
 c000504:	4971      	ldr	r1, [pc, #452]	; (c0006cc <.text_56>)
 c000506:	6802      	ldr	r2, [r0, #0]
 c000508:	428a      	cmp	r2, r1
 c00050a:	d108      	bne.n	c00051e <vTaskSwitchContext+0x2e>
 c00050c:	6842      	ldr	r2, [r0, #4]
 c00050e:	428a      	cmp	r2, r1
 c000510:	d105      	bne.n	c00051e <vTaskSwitchContext+0x2e>
 c000512:	6882      	ldr	r2, [r0, #8]
 c000514:	428a      	cmp	r2, r1
 c000516:	d102      	bne.n	c00051e <vTaskSwitchContext+0x2e>
 c000518:	68c0      	ldr	r0, [r0, #12]
 c00051a:	4288      	cmp	r0, r1
 c00051c:	d004      	beq.n	c000528 <vTaskSwitchContext+0x38>
 c00051e:	6aa1      	ldr	r1, [r4, #40]	; 0x28
 c000520:	3134      	adds	r1, #52	; 0x34
 c000522:	6aa0      	ldr	r0, [r4, #40]	; 0x28
 c000524:	f000 fab4 	bl	c000a90 <vApplicationStackOverflowHook>
 c000528:	6d60      	ldr	r0, [r4, #84]	; 0x54
 c00052a:	e000      	b.n	c00052e <vTaskSwitchContext+0x3e>
 c00052c:	1e40      	subs	r0, r0, #1
 c00052e:	492e      	ldr	r1, [pc, #184]	; (c0005e8 <.text_45>)
 c000530:	2214      	movs	r2, #20
 c000532:	4342      	muls	r2, r0
 c000534:	1889      	adds	r1, r1, r2
 c000536:	680a      	ldr	r2, [r1, #0]
 c000538:	2a00      	cmp	r2, #0
 c00053a:	d0f7      	beq.n	c00052c <vTaskSwitchContext+0x3c>
 c00053c:	684a      	ldr	r2, [r1, #4]
 c00053e:	6852      	ldr	r2, [r2, #4]
 c000540:	604a      	str	r2, [r1, #4]
 c000542:	000b      	movs	r3, r1
 c000544:	3308      	adds	r3, #8
 c000546:	429a      	cmp	r2, r3
 c000548:	d101      	bne.n	c00054e <vTaskSwitchContext+0x5e>
 c00054a:	6852      	ldr	r2, [r2, #4]
 c00054c:	604a      	str	r2, [r1, #4]
 c00054e:	6849      	ldr	r1, [r1, #4]
 c000550:	68c9      	ldr	r1, [r1, #12]
 c000552:	62a1      	str	r1, [r4, #40]	; 0x28
 c000554:	6560      	str	r0, [r4, #84]	; 0x54
 c000556:	bd10      	pop	{r4, pc}

0c000558 <vTaskPlaceOnEventList>:
 c000558:	b510      	push	{r4, lr}
 c00055a:	000c      	movs	r4, r1
 c00055c:	496e      	ldr	r1, [pc, #440]	; (c000718 <.text_62>)
 c00055e:	6a89      	ldr	r1, [r1, #40]	; 0x28
 c000560:	3118      	adds	r1, #24
 c000562:	f000 f9ee 	bl	c000942 <vListInsert>
 c000566:	e001      	b.n	c00056c <.text_41>

0c000568 <.text_39>:
 c000568:	000899dc 	.word	0x000899dc

0c00056c <.text_41>:
 c00056c:	2101      	movs	r1, #1
 c00056e:	0020      	movs	r0, r4
 c000570:	f000 f96d 	bl	c00084e <prvAddCurrentTaskToDelayedList>
 c000574:	bd10      	pop	{r4, pc}
	...

0c000578 <.text_42>:
 c000578:	0c00065b 	.word	0x0c00065b

0c00057c <vTaskPlaceOnEventListRestricted>:
 c00057c:	b538      	push	{r3, r4, r5, lr}
 c00057e:	000c      	movs	r4, r1
 c000580:	0015      	movs	r5, r2
 c000582:	4965      	ldr	r1, [pc, #404]	; (c000718 <.text_62>)
 c000584:	6a89      	ldr	r1, [r1, #40]	; 0x28
 c000586:	3118      	adds	r1, #24
 c000588:	f000 f9cf 	bl	c00092a <vListInsertEnd>
 c00058c:	b10d      	cbz	r5, c000592 <vTaskPlaceOnEventListRestricted+0x16>
 c00058e:	2400      	movs	r4, #0
 c000590:	43e4      	mvns	r4, r4
 c000592:	0029      	movs	r1, r5
 c000594:	0020      	movs	r0, r4
 c000596:	f000 f95a 	bl	c00084e <prvAddCurrentTaskToDelayedList>
 c00059a:	bd31      	pop	{r0, r4, r5, pc}

0c00059c <xTaskRemoveFromEventList>:
 c00059c:	b538      	push	{r3, r4, r5, lr}
 c00059e:	68c0      	ldr	r0, [r0, #12]
 c0005a0:	68c5      	ldr	r5, [r0, #12]
 c0005a2:	f7ff febe 	bl	c000322 <.text_8>
 c0005a6:	4c5c      	ldr	r4, [pc, #368]	; (c000718 <.text_62>)
 c0005a8:	6f20      	ldr	r0, [r4, #112]	; 0x70
 c0005aa:	b968      	cbnz	r0, c0005c8 <xTaskRemoveFromEventList+0x2c>
 c0005ac:	1d28      	adds	r0, r5, #4
 c0005ae:	f000 f9e3 	bl	c000978 <uxListRemove>
 c0005b2:	6ae8      	ldr	r0, [r5, #44]	; 0x2c
 c0005b4:	6d61      	ldr	r1, [r4, #84]	; 0x54
 c0005b6:	4281      	cmp	r1, r0
 c0005b8:	d200      	bcs.n	c0005bc <xTaskRemoveFromEventList+0x20>
 c0005ba:	6560      	str	r0, [r4, #84]	; 0x54
 c0005bc:	1d29      	adds	r1, r5, #4
 c0005be:	f000 f8fd 	bl	c0007bc <.text_66>
 c0005c2:	f000 f88e 	bl	c0006e2 <prvResetNextTaskUnblockTime>
 c0005c6:	e004      	b.n	c0005d2 <xTaskRemoveFromEventList+0x36>
 c0005c8:	0029      	movs	r1, r5
 c0005ca:	3118      	adds	r1, #24
 c0005cc:	0020      	movs	r0, r4
 c0005ce:	f000 f9ac 	bl	c00092a <vListInsertEnd>
 c0005d2:	6aa0      	ldr	r0, [r4, #40]	; 0x28
 c0005d4:	6ac0      	ldr	r0, [r0, #44]	; 0x2c
 c0005d6:	6ae9      	ldr	r1, [r5, #44]	; 0x2c
 c0005d8:	4288      	cmp	r0, r1
 c0005da:	d202      	bcs.n	c0005e2 <xTaskRemoveFromEventList+0x46>
 c0005dc:	2001      	movs	r0, #1
 c0005de:	6620      	str	r0, [r4, #96]	; 0x60
 c0005e0:	bd32      	pop	{r1, r4, r5, pc}
 c0005e2:	2000      	movs	r0, #0
 c0005e4:	bd32      	pop	{r1, r4, r5, pc}
	...

0c0005e8 <.text_45>:
 c0005e8:	00089a7c 	.word	0x00089a7c

0c0005ec <vTaskInternalSetTimeOutState>:
 c0005ec:	494a      	ldr	r1, [pc, #296]	; (c000718 <.text_62>)
 c0005ee:	6e4a      	ldr	r2, [r1, #100]	; 0x64
 c0005f0:	6002      	str	r2, [r0, #0]
 c0005f2:	6d09      	ldr	r1, [r1, #80]	; 0x50
 c0005f4:	6041      	str	r1, [r0, #4]
 c0005f6:	4770      	bx	lr

0c0005f8 <xTaskCheckForTimeOut>:
 c0005f8:	b5fe      	push	{r1, r2, r3, r4, r5, r6, r7, lr}
 c0005fa:	0005      	movs	r5, r0
 c0005fc:	000c      	movs	r4, r1
 c0005fe:	f000 fa15 	bl	c000a2c <vPortEnterCritical>
 c000602:	4a45      	ldr	r2, [pc, #276]	; (c000718 <.text_62>)
 c000604:	6d10      	ldr	r0, [r2, #80]	; 0x50
 c000606:	9002      	str	r0, [sp, #8]
 c000608:	6868      	ldr	r0, [r5, #4]
 c00060a:	9001      	str	r0, [sp, #4]
 c00060c:	9802      	ldr	r0, [sp, #8]
 c00060e:	9901      	ldr	r1, [sp, #4]
 c000610:	1a40      	subs	r0, r0, r1
 c000612:	9000      	str	r0, [sp, #0]
 c000614:	6823      	ldr	r3, [r4, #0]
 c000616:	2000      	movs	r0, #0
 c000618:	2100      	movs	r1, #0
 c00061a:	43c9      	mvns	r1, r1
 c00061c:	428b      	cmp	r3, r1
 c00061e:	d010      	beq.n	c000642 <xTaskCheckForTimeOut+0x4a>
 c000620:	6e56      	ldr	r6, [r2, #100]	; 0x64
 c000622:	682f      	ldr	r7, [r5, #0]
 c000624:	42be      	cmp	r6, r7
 c000626:	d003      	beq.n	c000630 <xTaskCheckForTimeOut+0x38>
 c000628:	9e02      	ldr	r6, [sp, #8]
 c00062a:	9f01      	ldr	r7, [sp, #4]
 c00062c:	42be      	cmp	r6, r7
 c00062e:	d20b      	bcs.n	c000648 <xTaskCheckForTimeOut+0x50>
 c000630:	9e00      	ldr	r6, [sp, #0]
 c000632:	429e      	cmp	r6, r3
 c000634:	d207      	bcs.n	c000646 <xTaskCheckForTimeOut+0x4e>
 c000636:	1b99      	subs	r1, r3, r6
 c000638:	6021      	str	r1, [r4, #0]
 c00063a:	6e51      	ldr	r1, [r2, #100]	; 0x64
 c00063c:	6029      	str	r1, [r5, #0]
 c00063e:	6d11      	ldr	r1, [r2, #80]	; 0x50
 c000640:	6069      	str	r1, [r5, #4]
 c000642:	2400      	movs	r4, #0
 c000644:	e001      	b.n	c00064a <xTaskCheckForTimeOut+0x52>
 c000646:	6020      	str	r0, [r4, #0]
 c000648:	2401      	movs	r4, #1
 c00064a:	f000 f9fb 	bl	c000a44 <vPortExitCritical>
 c00064e:	0020      	movs	r0, r4
 c000650:	bdfe      	pop	{r1, r2, r3, r4, r5, r6, r7, pc}

0c000652 <vTaskMissedYield>:
 c000652:	2001      	movs	r0, #1
 c000654:	4930      	ldr	r1, [pc, #192]	; (c000718 <.text_62>)
 c000656:	6608      	str	r0, [r1, #96]	; 0x60
 c000658:	4770      	bx	lr

0c00065a <prvIdleTask>:
 c00065a:	b538      	push	{r3, r4, r5, lr}
 c00065c:	4c2e      	ldr	r4, [pc, #184]	; (c000718 <.text_62>)
 c00065e:	e011      	b.n	c000684 <prvIdleTask+0x2a>
 c000660:	f000 f9e4 	bl	c000a2c <vPortEnterCritical>
 c000664:	6a20      	ldr	r0, [r4, #32]
 c000666:	68c5      	ldr	r5, [r0, #12]
 c000668:	1d28      	adds	r0, r5, #4
 c00066a:	f000 f985 	bl	c000978 <uxListRemove>
 c00066e:	6ce0      	ldr	r0, [r4, #76]	; 0x4c
 c000670:	1e40      	subs	r0, r0, #1
 c000672:	64e0      	str	r0, [r4, #76]	; 0x4c
 c000674:	6b60      	ldr	r0, [r4, #52]	; 0x34
 c000676:	1e40      	subs	r0, r0, #1
 c000678:	6360      	str	r0, [r4, #52]	; 0x34
 c00067a:	f000 f9e3 	bl	c000a44 <vPortExitCritical>
 c00067e:	0028      	movs	r0, r5
 c000680:	f000 f826 	bl	c0006d0 <prvDeleteTCB>
 c000684:	6b60      	ldr	r0, [r4, #52]	; 0x34
 c000686:	2800      	cmp	r0, #0
 c000688:	d1ea      	bne.n	c000660 <prvIdleTask+0x6>
 c00068a:	f000 f9ff 	bl	c000a8c <vApplicationIdleHook>
 c00068e:	f7ff fe88 	bl	c0003a2 <prvGetExpectedIdleTime>
 c000692:	2802      	cmp	r0, #2
 c000694:	d3f6      	bcc.n	c000684 <prvIdleTask+0x2a>
 c000696:	6f20      	ldr	r0, [r4, #112]	; 0x70
 c000698:	1c40      	adds	r0, r0, #1
 c00069a:	6720      	str	r0, [r4, #112]	; 0x70
 c00069c:	f7ff fe81 	bl	c0003a2 <prvGetExpectedIdleTime>
 c0006a0:	2802      	cmp	r0, #2
 c0006a2:	d301      	bcc.n	c0006a8 <prvIdleTask+0x4e>
 c0006a4:	f000 fcea 	bl	c00107c <vPortSuppressTicksAndSleep>
 c0006a8:	f7ff fe8d 	bl	c0003c6 <xTaskResumeAll>
 c0006ac:	e7ea      	b.n	c000684 <prvIdleTask+0x2a>

0c0006ae <eTaskConfirmSleepModeStatus>:
 c0006ae:	2001      	movs	r0, #1
 c0006b0:	4919      	ldr	r1, [pc, #100]	; (c000718 <.text_62>)
 c0006b2:	680a      	ldr	r2, [r1, #0]
 c0006b4:	b90a      	cbnz	r2, c0006ba <eTaskConfirmSleepModeStatus+0xc>
 c0006b6:	6e0a      	ldr	r2, [r1, #96]	; 0x60
 c0006b8:	b10a      	cbz	r2, c0006be <eTaskConfirmSleepModeStatus+0x10>
 c0006ba:	2000      	movs	r0, #0
 c0006bc:	4770      	bx	lr
 c0006be:	6b8a      	ldr	r2, [r1, #56]	; 0x38
 c0006c0:	6cc9      	ldr	r1, [r1, #76]	; 0x4c
 c0006c2:	1e49      	subs	r1, r1, #1
 c0006c4:	428a      	cmp	r2, r1
 c0006c6:	d100      	bne.n	c0006ca <eTaskConfirmSleepModeStatus+0x1c>
 c0006c8:	2002      	movs	r0, #2
 c0006ca:	4770      	bx	lr

0c0006cc <.text_56>:
 c0006cc:	a5a5a5a5 	.word	0xa5a5a5a5

0c0006d0 <prvDeleteTCB>:
 c0006d0:	b510      	push	{r4, lr}
 c0006d2:	0004      	movs	r4, r0
 c0006d4:	6b20      	ldr	r0, [r4, #48]	; 0x30
 c0006d6:	f7ff fcf2 	bl	c0000be <vPortFree>
 c0006da:	0020      	movs	r0, r4
 c0006dc:	f7ff fcef 	bl	c0000be <vPortFree>
 c0006e0:	bd10      	pop	{r4, pc}

0c0006e2 <prvResetNextTaskUnblockTime>:
 c0006e2:	480d      	ldr	r0, [pc, #52]	; (c000718 <.text_62>)
 c0006e4:	6ac1      	ldr	r1, [r0, #44]	; 0x2c
 c0006e6:	6809      	ldr	r1, [r1, #0]
 c0006e8:	b911      	cbnz	r1, c0006f0 <prvResetNextTaskUnblockTime+0xe>
 c0006ea:	2100      	movs	r1, #0
 c0006ec:	43c9      	mvns	r1, r1
 c0006ee:	e003      	b.n	c0006f8 <prvResetNextTaskUnblockTime+0x16>
 c0006f0:	6ac1      	ldr	r1, [r0, #44]	; 0x2c
 c0006f2:	68c9      	ldr	r1, [r1, #12]
 c0006f4:	68c9      	ldr	r1, [r1, #12]
 c0006f6:	6849      	ldr	r1, [r1, #4]
 c0006f8:	66c1      	str	r1, [r0, #108]	; 0x6c
 c0006fa:	4770      	bx	lr

0c0006fc <xTaskGetCurrentTaskHandle>:
 c0006fc:	484f      	ldr	r0, [pc, #316]	; (c00083c <.text_76>)
 c0006fe:	6a80      	ldr	r0, [r0, #40]	; 0x28
 c000700:	4770      	bx	lr

0c000702 <xTaskGetSchedulerState>:
 c000702:	484e      	ldr	r0, [pc, #312]	; (c00083c <.text_76>)
 c000704:	6d81      	ldr	r1, [r0, #88]	; 0x58
 c000706:	b909      	cbnz	r1, c00070c <xTaskGetSchedulerState+0xa>
 c000708:	2001      	movs	r0, #1
 c00070a:	4770      	bx	lr
 c00070c:	6f00      	ldr	r0, [r0, #112]	; 0x70
 c00070e:	b908      	cbnz	r0, c000714 <xTaskGetSchedulerState+0x12>
 c000710:	2002      	movs	r0, #2
 c000712:	4770      	bx	lr
 c000714:	2000      	movs	r0, #0
 c000716:	4770      	bx	lr

0c000718 <.text_62>:
 c000718:	000899dc 	.word	0x000899dc

0c00071c <xTaskPriorityInherit>:
 c00071c:	b570      	push	{r4, r5, r6, lr}
 c00071e:	0005      	movs	r5, r0
 c000720:	2000      	movs	r0, #0
 c000722:	b365      	cbz	r5, c00077e <xTaskPriorityInherit+0x62>
 c000724:	6ae9      	ldr	r1, [r5, #44]	; 0x2c
 c000726:	4e45      	ldr	r6, [pc, #276]	; (c00083c <.text_76>)
 c000728:	6ab2      	ldr	r2, [r6, #40]	; 0x28
 c00072a:	6ad2      	ldr	r2, [r2, #44]	; 0x2c
 c00072c:	4291      	cmp	r1, r2
 c00072e:	d220      	bcs.n	c000772 <xTaskPriorityInherit+0x56>
 c000730:	69a8      	ldr	r0, [r5, #24]
 c000732:	2800      	cmp	r0, #0
 c000734:	d404      	bmi.n	c000740 <xTaskPriorityInherit+0x24>
 c000736:	200b      	movs	r0, #11
 c000738:	6ab2      	ldr	r2, [r6, #40]	; 0x28
 c00073a:	6ad2      	ldr	r2, [r2, #44]	; 0x2c
 c00073c:	1a80      	subs	r0, r0, r2
 c00073e:	61a8      	str	r0, [r5, #24]
 c000740:	4c3f      	ldr	r4, [pc, #252]	; (c000840 <.text_77>)
 c000742:	6968      	ldr	r0, [r5, #20]
 c000744:	2214      	movs	r2, #20
 c000746:	4351      	muls	r1, r2
 c000748:	1861      	adds	r1, r4, r1
 c00074a:	4288      	cmp	r0, r1
 c00074c:	d10d      	bne.n	c00076a <xTaskPriorityInherit+0x4e>
 c00074e:	1d28      	adds	r0, r5, #4
 c000750:	f000 f912 	bl	c000978 <uxListRemove>
 c000754:	6ab0      	ldr	r0, [r6, #40]	; 0x28
 c000756:	6ac0      	ldr	r0, [r0, #44]	; 0x2c
 c000758:	62e8      	str	r0, [r5, #44]	; 0x2c
 c00075a:	6d71      	ldr	r1, [r6, #84]	; 0x54
 c00075c:	4281      	cmp	r1, r0
 c00075e:	d200      	bcs.n	c000762 <xTaskPriorityInherit+0x46>
 c000760:	6570      	str	r0, [r6, #84]	; 0x54
 c000762:	1d29      	adds	r1, r5, #4
 c000764:	f000 f80c 	bl	c000780 <.text_64>
 c000768:	e008      	b.n	c00077c <xTaskPriorityInherit+0x60>
 c00076a:	6ab0      	ldr	r0, [r6, #40]	; 0x28
 c00076c:	6ac0      	ldr	r0, [r0, #44]	; 0x2c
 c00076e:	62e8      	str	r0, [r5, #44]	; 0x2c
 c000770:	e004      	b.n	c00077c <xTaskPriorityInherit+0x60>
 c000772:	6ce9      	ldr	r1, [r5, #76]	; 0x4c
 c000774:	6ab2      	ldr	r2, [r6, #40]	; 0x28
 c000776:	6ad2      	ldr	r2, [r2, #44]	; 0x2c
 c000778:	4291      	cmp	r1, r2
 c00077a:	d200      	bcs.n	c00077e <xTaskPriorityInherit+0x62>
 c00077c:	2001      	movs	r0, #1
 c00077e:	bd70      	pop	{r4, r5, r6, pc}

0c000780 <.text_64>:
 c000780:	2214      	movs	r2, #20
 c000782:	4350      	muls	r0, r2
 c000784:	1820      	adds	r0, r4, r0
 c000786:	f000 b8d0 	b.w	c00092a <vListInsertEnd>

0c00078a <xTaskPriorityDisinherit>:
 c00078a:	b510      	push	{r4, lr}
 c00078c:	0004      	movs	r4, r0
 c00078e:	2000      	movs	r0, #0
 c000790:	b19c      	cbz	r4, c0007ba <xTaskPriorityDisinherit+0x30>
 c000792:	6d21      	ldr	r1, [r4, #80]	; 0x50
 c000794:	1e49      	subs	r1, r1, #1
 c000796:	6521      	str	r1, [r4, #80]	; 0x50
 c000798:	6ae2      	ldr	r2, [r4, #44]	; 0x2c
 c00079a:	6ce3      	ldr	r3, [r4, #76]	; 0x4c
 c00079c:	429a      	cmp	r2, r3
 c00079e:	d00c      	beq.n	c0007ba <xTaskPriorityDisinherit+0x30>
 c0007a0:	b959      	cbnz	r1, c0007ba <xTaskPriorityDisinherit+0x30>
 c0007a2:	f000 f83e 	bl	c000822 <.text_69>
 c0007a6:	6ce0      	ldr	r0, [r4, #76]	; 0x4c
 c0007a8:	62e0      	str	r0, [r4, #44]	; 0x2c
 c0007aa:	210b      	movs	r1, #11
 c0007ac:	1a09      	subs	r1, r1, r0
 c0007ae:	61a1      	str	r1, [r4, #24]
 c0007b0:	f000 f830 	bl	c000814 <.text_68>
 c0007b4:	f000 f802 	bl	c0007bc <.text_66>
 c0007b8:	2001      	movs	r0, #1
 c0007ba:	bd10      	pop	{r4, pc}

0c0007bc <.text_66>:
 c0007bc:	4a20      	ldr	r2, [pc, #128]	; (c000840 <.text_77>)
 c0007be:	2314      	movs	r3, #20
 c0007c0:	4358      	muls	r0, r3
 c0007c2:	1810      	adds	r0, r2, r0
 c0007c4:	f000 b8b1 	b.w	c00092a <vListInsertEnd>

0c0007c8 <vTaskPriorityDisinheritAfterTimeout>:
 c0007c8:	b538      	push	{r3, r4, r5, lr}
 c0007ca:	0004      	movs	r4, r0
 c0007cc:	d021      	beq.n	c000812 <vTaskPriorityDisinheritAfterTimeout+0x4a>
 c0007ce:	6ce0      	ldr	r0, [r4, #76]	; 0x4c
 c0007d0:	4281      	cmp	r1, r0
 c0007d2:	d200      	bcs.n	c0007d6 <vTaskPriorityDisinheritAfterTimeout+0xe>
 c0007d4:	0001      	movs	r1, r0
 c0007d6:	6ae0      	ldr	r0, [r4, #44]	; 0x2c
 c0007d8:	4288      	cmp	r0, r1
 c0007da:	d01a      	beq.n	c000812 <vTaskPriorityDisinheritAfterTimeout+0x4a>
 c0007dc:	6d22      	ldr	r2, [r4, #80]	; 0x50
 c0007de:	2a01      	cmp	r2, #1
 c0007e0:	d117      	bne.n	c000812 <vTaskPriorityDisinheritAfterTimeout+0x4a>
 c0007e2:	62e1      	str	r1, [r4, #44]	; 0x2c
 c0007e4:	69a2      	ldr	r2, [r4, #24]
 c0007e6:	2a00      	cmp	r2, #0
 c0007e8:	d402      	bmi.n	c0007f0 <vTaskPriorityDisinheritAfterTimeout+0x28>
 c0007ea:	220b      	movs	r2, #11
 c0007ec:	1a51      	subs	r1, r2, r1
 c0007ee:	61a1      	str	r1, [r4, #24]
 c0007f0:	4d13      	ldr	r5, [pc, #76]	; (c000840 <.text_77>)
 c0007f2:	6961      	ldr	r1, [r4, #20]
 c0007f4:	2214      	movs	r2, #20
 c0007f6:	4350      	muls	r0, r2
 c0007f8:	1828      	adds	r0, r5, r0
 c0007fa:	4281      	cmp	r1, r0
 c0007fc:	d109      	bne.n	c000812 <vTaskPriorityDisinheritAfterTimeout+0x4a>
 c0007fe:	f000 f810 	bl	c000822 <.text_69>
 c000802:	6ae0      	ldr	r0, [r4, #44]	; 0x2c
 c000804:	f000 f806 	bl	c000814 <.text_68>
 c000808:	2214      	movs	r2, #20
 c00080a:	4350      	muls	r0, r2
 c00080c:	1828      	adds	r0, r5, r0
 c00080e:	f000 f88c 	bl	c00092a <vListInsertEnd>
 c000812:	bd31      	pop	{r0, r4, r5, pc}

0c000814 <.text_68>:
 c000814:	4909      	ldr	r1, [pc, #36]	; (c00083c <.text_76>)
 c000816:	6d4a      	ldr	r2, [r1, #84]	; 0x54
 c000818:	4282      	cmp	r2, r0
 c00081a:	d200      	bcs.n	c00081e <.text_68+0xa>
 c00081c:	6548      	str	r0, [r1, #84]	; 0x54
 c00081e:	1d21      	adds	r1, r4, #4
 c000820:	4770      	bx	lr

0c000822 <.text_69>:
 c000822:	1d20      	adds	r0, r4, #4
 c000824:	f000 b8a8 	b.w	c000978 <uxListRemove>

0c000828 <pvTaskIncrementMutexHeldCount>:
 c000828:	481e      	ldr	r0, [pc, #120]	; (c0008a4 <.text_87>)
 c00082a:	6a81      	ldr	r1, [r0, #40]	; 0x28
 c00082c:	b119      	cbz	r1, c000836 <pvTaskIncrementMutexHeldCount+0xe>
 c00082e:	6a81      	ldr	r1, [r0, #40]	; 0x28
 c000830:	6d0a      	ldr	r2, [r1, #80]	; 0x50
 c000832:	1c52      	adds	r2, r2, #1
 c000834:	650a      	str	r2, [r1, #80]	; 0x50
 c000836:	6a80      	ldr	r0, [r0, #40]	; 0x28
 c000838:	4770      	bx	lr
	...

0c00083c <.text_76>:
 c00083c:	000899dc 	.word	0x000899dc

0c000840 <.text_77>:
 c000840:	00089a7c 	.word	0x00089a7c

0c000844 <.text_79>:
 c000844:	6aa8      	ldr	r0, [r5, #40]	; 0x28
 c000846:	6ac0      	ldr	r0, [r0, #44]	; 0x2c
 c000848:	6ae1      	ldr	r1, [r4, #44]	; 0x2c
 c00084a:	4288      	cmp	r0, r1
 c00084c:	4770      	bx	lr

0c00084e <prvAddCurrentTaskToDelayedList>:
 c00084e:	b5f8      	push	{r3, r4, r5, r6, r7, lr}
 c000850:	0004      	movs	r4, r0
 c000852:	000e      	movs	r6, r1
 c000854:	4d13      	ldr	r5, [pc, #76]	; (c0008a4 <.text_87>)
 c000856:	6d2f      	ldr	r7, [r5, #80]	; 0x50
 c000858:	6aa8      	ldr	r0, [r5, #40]	; 0x28
 c00085a:	1d00      	adds	r0, r0, #4
 c00085c:	f000 f88c 	bl	c000978 <uxListRemove>
 c000860:	2000      	movs	r0, #0
 c000862:	43c0      	mvns	r0, r0
 c000864:	4284      	cmp	r4, r0
 c000866:	d107      	bne.n	c000878 <prvAddCurrentTaskToDelayedList+0x2a>
 c000868:	b136      	cbz	r6, c000878 <prvAddCurrentTaskToDelayedList+0x2a>
 c00086a:	6aa8      	ldr	r0, [r5, #40]	; 0x28
 c00086c:	1d01      	adds	r1, r0, #4
 c00086e:	0028      	movs	r0, r5
 c000870:	3038      	adds	r0, #56	; 0x38
 c000872:	f000 f85a 	bl	c00092a <vListInsertEnd>
 c000876:	bdf1      	pop	{r0, r4, r5, r6, r7, pc}
 c000878:	193c      	adds	r4, r7, r4
 c00087a:	6aa8      	ldr	r0, [r5, #40]	; 0x28
 c00087c:	6044      	str	r4, [r0, #4]
 c00087e:	42bc      	cmp	r4, r7
 c000880:	6aa8      	ldr	r0, [r5, #40]	; 0x28
 c000882:	d204      	bcs.n	c00088e <prvAddCurrentTaskToDelayedList+0x40>
 c000884:	1d01      	adds	r1, r0, #4
 c000886:	6b28      	ldr	r0, [r5, #48]	; 0x30
 c000888:	f000 f85b 	bl	c000942 <vListInsert>
 c00088c:	bdf1      	pop	{r0, r4, r5, r6, r7, pc}
 c00088e:	1d01      	adds	r1, r0, #4
 c000890:	6ae8      	ldr	r0, [r5, #44]	; 0x2c
 c000892:	f000 f856 	bl	c000942 <vListInsert>
 c000896:	6ee8      	ldr	r0, [r5, #108]	; 0x6c
 c000898:	4284      	cmp	r4, r0
 c00089a:	d200      	bcs.n	c00089e <prvAddCurrentTaskToDelayedList+0x50>
 c00089c:	66ec      	str	r4, [r5, #108]	; 0x6c
 c00089e:	bdf1      	pop	{r0, r4, r5, r6, r7, pc}
 c0008a0:	0000      	movs	r0, r0
	...

0c0008a4 <.text_87>:
 c0008a4:	000899dc 	.word	0x000899dc

0c0008a8 <__aeabi_memset>:
 c0008a8:	0612      	lsls	r2, r2, #24
 c0008aa:	0a13      	lsrs	r3, r2, #8
 c0008ac:	431a      	orrs	r2, r3
 c0008ae:	0c13      	lsrs	r3, r2, #16
 c0008b0:	431a      	orrs	r2, r3
 c0008b2:	bf00      	nop

0c0008b4 <__iar_Memset_word>:
 c0008b4:	4209      	tst	r1, r1
 c0008b6:	d005      	beq.n	c0008c4 <__iar_Memset_word+0x10>
 c0008b8:	0783      	lsls	r3, r0, #30
 c0008ba:	d00d      	beq.n	c0008d8 <__iar_Memset4_word>
 c0008bc:	7002      	strb	r2, [r0, #0]
 c0008be:	1c40      	adds	r0, r0, #1
 c0008c0:	1e49      	subs	r1, r1, #1
 c0008c2:	d1f9      	bne.n	c0008b8 <__iar_Memset_word+0x4>
 c0008c4:	4770      	bx	lr
	...

0c0008c8 <__aeabi_memclr>:
 c0008c8:	2200      	movs	r2, #0
 c0008ca:	e7f3      	b.n	c0008b4 <__iar_Memset_word>

0c0008cc <__aeabi_memset4>:
 c0008cc:	0612      	lsls	r2, r2, #24
 c0008ce:	0a13      	lsrs	r3, r2, #8
 c0008d0:	431a      	orrs	r2, r3
 c0008d2:	0c13      	lsrs	r3, r2, #16
 c0008d4:	431a      	orrs	r2, r3
 c0008d6:	bf00      	nop

0c0008d8 <__iar_Memset4_word>:
 c0008d8:	0013      	movs	r3, r2
 c0008da:	3910      	subs	r1, #16
 c0008dc:	d306      	bcc.n	c0008ec <__iar_Memset4_word+0x14>
 c0008de:	b430      	push	{r4, r5}
 c0008e0:	0014      	movs	r4, r2
 c0008e2:	0015      	movs	r5, r2
 c0008e4:	3910      	subs	r1, #16
 c0008e6:	c03c      	stmia	r0!, {r2, r3, r4, r5}
 c0008e8:	d2fc      	bcs.n	c0008e4 <__iar_Memset4_word+0xc>
 c0008ea:	bc30      	pop	{r4, r5}
 c0008ec:	0749      	lsls	r1, r1, #29
 c0008ee:	d300      	bcc.n	c0008f2 <__iar_Memset4_word+0x1a>
 c0008f0:	c00c      	stmia	r0!, {r2, r3}
 c0008f2:	d500      	bpl.n	c0008f6 <__iar_Memset4_word+0x1e>
 c0008f4:	c004      	stmia	r0!, {r2}
 c0008f6:	0089      	lsls	r1, r1, #2
 c0008f8:	d302      	bcc.n	c000900 <__iar_Memset4_word+0x28>
 c0008fa:	8002      	strh	r2, [r0, #0]
 c0008fc:	1c80      	adds	r0, r0, #2
 c0008fe:	2900      	cmp	r1, #0
 c000900:	d500      	bpl.n	c000904 <__iar_Memset4_word+0x2c>
 c000902:	7002      	strb	r2, [r0, #0]
 c000904:	4770      	bx	lr

0c000906 <vListInitialise>:
 c000906:	0001      	movs	r1, r0
 c000908:	3108      	adds	r1, #8
 c00090a:	6041      	str	r1, [r0, #4]
 c00090c:	2100      	movs	r1, #0
 c00090e:	43c9      	mvns	r1, r1
 c000910:	6081      	str	r1, [r0, #8]
 c000912:	0001      	movs	r1, r0
 c000914:	3108      	adds	r1, #8
 c000916:	60c1      	str	r1, [r0, #12]
 c000918:	0001      	movs	r1, r0
 c00091a:	3108      	adds	r1, #8
 c00091c:	6101      	str	r1, [r0, #16]
 c00091e:	2100      	movs	r1, #0
 c000920:	6001      	str	r1, [r0, #0]
 c000922:	4770      	bx	lr

0c000924 <vListInitialiseItem>:
 c000924:	2100      	movs	r1, #0
 c000926:	6101      	str	r1, [r0, #16]
 c000928:	4770      	bx	lr

0c00092a <vListInsertEnd>:
 c00092a:	6842      	ldr	r2, [r0, #4]
 c00092c:	604a      	str	r2, [r1, #4]
 c00092e:	6893      	ldr	r3, [r2, #8]
 c000930:	608b      	str	r3, [r1, #8]
 c000932:	6893      	ldr	r3, [r2, #8]
 c000934:	6059      	str	r1, [r3, #4]
 c000936:	6091      	str	r1, [r2, #8]
 c000938:	6108      	str	r0, [r1, #16]
 c00093a:	6801      	ldr	r1, [r0, #0]
 c00093c:	1c49      	adds	r1, r1, #1
 c00093e:	6001      	str	r1, [r0, #0]
 c000940:	4770      	bx	lr

0c000942 <vListInsert>:
 c000942:	b430      	push	{r4, r5}
 c000944:	680a      	ldr	r2, [r1, #0]
 c000946:	2300      	movs	r3, #0
 c000948:	43db      	mvns	r3, r3
 c00094a:	429a      	cmp	r2, r3
 c00094c:	d101      	bne.n	c000952 <vListInsert+0x10>
 c00094e:	6903      	ldr	r3, [r0, #16]
 c000950:	e007      	b.n	c000962 <vListInsert+0x20>
 c000952:	0003      	movs	r3, r0
 c000954:	3308      	adds	r3, #8
 c000956:	e000      	b.n	c00095a <vListInsert+0x18>
 c000958:	0023      	movs	r3, r4
 c00095a:	685c      	ldr	r4, [r3, #4]
 c00095c:	6825      	ldr	r5, [r4, #0]
 c00095e:	42aa      	cmp	r2, r5
 c000960:	d2fa      	bcs.n	c000958 <vListInsert+0x16>
 c000962:	685a      	ldr	r2, [r3, #4]
 c000964:	604a      	str	r2, [r1, #4]
 c000966:	6091      	str	r1, [r2, #8]
 c000968:	608b      	str	r3, [r1, #8]
 c00096a:	6059      	str	r1, [r3, #4]
 c00096c:	6108      	str	r0, [r1, #16]
 c00096e:	6801      	ldr	r1, [r0, #0]
 c000970:	1c49      	adds	r1, r1, #1
 c000972:	6001      	str	r1, [r0, #0]
 c000974:	bc30      	pop	{r4, r5}
 c000976:	4770      	bx	lr

0c000978 <uxListRemove>:
 c000978:	6901      	ldr	r1, [r0, #16]
 c00097a:	6882      	ldr	r2, [r0, #8]
 c00097c:	6843      	ldr	r3, [r0, #4]
 c00097e:	609a      	str	r2, [r3, #8]
 c000980:	6842      	ldr	r2, [r0, #4]
 c000982:	6883      	ldr	r3, [r0, #8]
 c000984:	605a      	str	r2, [r3, #4]
 c000986:	684a      	ldr	r2, [r1, #4]
 c000988:	4282      	cmp	r2, r0
 c00098a:	d101      	bne.n	c000990 <uxListRemove+0x18>
 c00098c:	6882      	ldr	r2, [r0, #8]
 c00098e:	604a      	str	r2, [r1, #4]
 c000990:	2200      	movs	r2, #0
 c000992:	6102      	str	r2, [r0, #16]
 c000994:	6808      	ldr	r0, [r1, #0]
 c000996:	1e40      	subs	r0, r0, #1
 c000998:	6008      	str	r0, [r1, #0]
 c00099a:	6808      	ldr	r0, [r1, #0]
 c00099c:	4770      	bx	lr
	...

0c0009a0 <?Veneer 23 (3) for DiagPrintf>:
 c0009a0:	b408      	push	{r3}
 c0009a2:	4b02      	ldr	r3, [pc, #8]	; (c0009ac <?Veneer 23 (3) for DiagPrintf+0xc>)
 c0009a4:	469c      	mov	ip, r3
 c0009a6:	bc08      	pop	{r3}
 c0009a8:	4760      	bx	ip
 c0009aa:	46c0      	nop			; (mov r8, r8)
 c0009ac:	00000475 	.word	0x00000475

0c0009b0 <?Veneer 58 (3) for app_taskidle_handler>:
 c0009b0:	b408      	push	{r3}
 c0009b2:	4b02      	ldr	r3, [pc, #8]	; (c0009bc <?Veneer 58 (3) for app_taskidle_handler+0xc>)
 c0009b4:	469c      	mov	ip, r3
 c0009b6:	bc08      	pop	{r3}
 c0009b8:	4760      	bx	ip
 c0009ba:	46c0      	nop			; (mov r8, r8)
 c0009bc:	00083f55 	.word	0x00083f55

0c0009c0 <pxPortInitialiseStack>:
 c0009c0:	b410      	push	{r4}
 c0009c2:	0003      	movs	r3, r0
 c0009c4:	3b0c      	subs	r3, #12
 c0009c6:	2480      	movs	r4, #128	; 0x80
 c0009c8:	0464      	lsls	r4, r4, #17
 c0009ca:	609c      	str	r4, [r3, #8]
 c0009cc:	6059      	str	r1, [r3, #4]
 c0009ce:	4929      	ldr	r1, [pc, #164]	; (c000a74 <.text_12>)
 c0009d0:	6019      	str	r1, [r3, #0]
 c0009d2:	3820      	subs	r0, #32
 c0009d4:	6002      	str	r2, [r0, #0]
 c0009d6:	3820      	subs	r0, #32
 c0009d8:	bc10      	pop	{r4}
 c0009da:	4770      	bx	lr

0c0009dc <prvTaskExitError>:
 c0009dc:	b672      	cpsid	i
 c0009de:	e7fe      	b.n	c0009de <prvTaskExitError+0x2>

0c0009e0 <xPortStartScheduler>:
 c0009e0:	b580      	push	{r7, lr}
 c0009e2:	4825      	ldr	r0, [pc, #148]	; (c000a78 <.text_13>)
 c0009e4:	6801      	ldr	r1, [r0, #0]
 c0009e6:	22ff      	movs	r2, #255	; 0xff
 c0009e8:	0412      	lsls	r2, r2, #16
 c0009ea:	430a      	orrs	r2, r1
 c0009ec:	6002      	str	r2, [r0, #0]
 c0009ee:	6801      	ldr	r1, [r0, #0]
 c0009f0:	22ff      	movs	r2, #255	; 0xff
 c0009f2:	0612      	lsls	r2, r2, #24
 c0009f4:	430a      	orrs	r2, r1
 c0009f6:	6002      	str	r2, [r0, #0]
 c0009f8:	4820      	ldr	r0, [pc, #128]	; (c000a7c <.text_14>)
 c0009fa:	2100      	movs	r1, #0
 c0009fc:	6001      	str	r1, [r0, #0]
 c0009fe:	6081      	str	r1, [r0, #8]
 c000a00:	4a1f      	ldr	r2, [pc, #124]	; (c000a80 <.text_15>)
 c000a02:	6812      	ldr	r2, [r2, #0]
 c000a04:	f240 33e8 	movw	r3, #1000	; 0x3e8
 c000a08:	fbb2 f2f3 	udiv	r2, r2, r3
 c000a0c:	1e52      	subs	r2, r2, #1
 c000a0e:	6042      	str	r2, [r0, #4]
 c000a10:	2207      	movs	r2, #7
 c000a12:	6002      	str	r2, [r0, #0]
 c000a14:	481b      	ldr	r0, [pc, #108]	; (c000a84 <.text_16>)
 c000a16:	6001      	str	r1, [r0, #0]
 c000a18:	f011 f86d 	bl	c011af6 <vPortStartFirstTask>
 c000a1c:	2000      	movs	r0, #0
 c000a1e:	bd02      	pop	{r1, pc}

0c000a20 <vPortYield>:
 c000a20:	2080      	movs	r0, #128	; 0x80
 c000a22:	0540      	lsls	r0, r0, #21
 c000a24:	4918      	ldr	r1, [pc, #96]	; (c000a88 <.text_17>)
 c000a26:	6008      	str	r0, [r1, #0]
 c000a28:	e006      	b.n	c000a38 <.text_9>
	...

0c000a2c <vPortEnterCritical>:
 c000a2c:	b672      	cpsid	i
 c000a2e:	4815      	ldr	r0, [pc, #84]	; (c000a84 <.text_16>)
 c000a30:	6801      	ldr	r1, [r0, #0]
 c000a32:	1c49      	adds	r1, r1, #1
 c000a34:	6001      	str	r1, [r0, #0]
 c000a36:	bf00      	nop

0c000a38 <.text_9>:
 c000a38:	f3bf 8f4f 	dsb	sy
 c000a3c:	f3bf 8f6f 	isb	sy
 c000a40:	4770      	bx	lr
	...

0c000a44 <vPortExitCritical>:
 c000a44:	480f      	ldr	r0, [pc, #60]	; (c000a84 <.text_16>)
 c000a46:	6801      	ldr	r1, [r0, #0]
 c000a48:	1e49      	subs	r1, r1, #1
 c000a4a:	6001      	str	r1, [r0, #0]
 c000a4c:	2900      	cmp	r1, #0
 c000a4e:	d100      	bne.n	c000a52 <vPortExitCritical+0xe>
 c000a50:	b662      	cpsie	i
 c000a52:	4770      	bx	lr

0c000a54 <SysTick_Handler>:
 c000a54:	b510      	push	{r4, lr}
 c000a56:	f011 f85f 	bl	c011b18 <ulSetInterruptMaskFromISR>
 c000a5a:	0004      	movs	r4, r0
 c000a5c:	f7ff fcf4 	bl	c000448 <xTaskIncrementTick>
 c000a60:	b118      	cbz	r0, c000a6a <SysTick_Handler+0x16>
 c000a62:	2080      	movs	r0, #128	; 0x80
 c000a64:	0540      	lsls	r0, r0, #21
 c000a66:	4908      	ldr	r1, [pc, #32]	; (c000a88 <.text_17>)
 c000a68:	6008      	str	r0, [r1, #0]
 c000a6a:	0020      	movs	r0, r4
 c000a6c:	f011 f858 	bl	c011b20 <vClearInterruptMaskFromISR>
 c000a70:	bd10      	pop	{r4, pc}
	...

0c000a74 <.text_12>:
 c000a74:	0c0009dd 	.word	0x0c0009dd

0c000a78 <.text_13>:
 c000a78:	e000ed20 	.word	0xe000ed20

0c000a7c <.text_14>:
 c000a7c:	e000e010 	.word	0xe000e010

0c000a80 <.text_15>:
 c000a80:	00084618 	.word	0x00084618

0c000a84 <.text_16>:
 c000a84:	00083f70 	.word	0x00083f70

0c000a88 <.text_17>:
 c000a88:	e000ed04 	.word	0xe000ed04

0c000a8c <vApplicationIdleHook>:
 c000a8c:	f7ff bf90 	b.w	c0009b0 <?Veneer 58 (3) for app_taskidle_handler>

0c000a90 <vApplicationStackOverflowHook>:
 c000a90:	b580      	push	{r7, lr}
 c000a92:	000a      	movs	r2, r1
 c000a94:	a102      	add	r1, pc, #8	; (adr r1, c000aa0 <vApplicationStackOverflowHook::__FUNCTION__>)
 c000a96:	bf00      	nop
 c000a98:	a009      	add	r0, pc, #36	; (adr r0, c000ac0 <.text_21>)
 c000a9a:	f7ff ff81 	bl	c0009a0 <?Veneer 23 (3) for DiagPrintf>
 c000a9e:	e7fe      	b.n	c000a9e <vApplicationStackOverflowHook+0xe>

0c000aa0 <vApplicationStackOverflowHook::__FUNCTION__>:
 c000aa0:	4176 7070 696c 6163 6974 6e6f 7453 6361     vApplicationStac
 c000ab0:	4f6b 6576 6672 6f6c 4877 6f6f 006b 0000     kOverflowHook...

0c000ac0 <.text_21>:
 c000ac0:	255b0d0a 	.word	0x255b0d0a
 c000ac4:	53205d73 	.word	0x53205d73
 c000ac8:	4b434154 	.word	0x4b434154
 c000acc:	45564f20 	.word	0x45564f20
 c000ad0:	4f4c4652 	.word	0x4f4c4652
 c000ad4:	202d2057 	.word	0x202d2057
 c000ad8:	6b736154 	.word	0x6b736154
 c000adc:	656d614e 	.word	0x656d614e
 c000ae0:	29732528 	.word	0x29732528
 c000ae4:	00000d0a 	.word	0x00000d0a

0c000ae8 <xTimerCreateTimerTask>:
 c000ae8:	b51c      	push	{r2, r3, r4, lr}
 c000aea:	2400      	movs	r4, #0
 c000aec:	f000 f983 	bl	c000df6 <prvCheckForValidListAndQueue>
 c000af0:	4889      	ldr	r0, [pc, #548]	; (c000d18 <.text_16>)
 c000af2:	6881      	ldr	r1, [r0, #8]
 c000af4:	b159      	cbz	r1, c000b0e <xTimerCreateTimerTask+0x26>
 c000af6:	300c      	adds	r0, #12
 c000af8:	9001      	str	r0, [sp, #4]
 c000afa:	2001      	movs	r0, #1
 c000afc:	9000      	str	r0, [sp, #0]
 c000afe:	2300      	movs	r3, #0
 c000b00:	0242      	lsls	r2, r0, #9
 c000b02:	bf00      	nop
 c000b04:	a103      	add	r1, pc, #12	; (adr r1, c000b14 <.text_4>)
 c000b06:	4885      	ldr	r0, [pc, #532]	; (c000d1c <.text_17>)
 c000b08:	f7ff fb4a 	bl	c0001a0 <xTaskCreate>
 c000b0c:	0004      	movs	r4, r0
 c000b0e:	0020      	movs	r0, r4
 c000b10:	bd16      	pop	{r1, r2, r4, pc}
	...

0c000b14 <.text_4>:
 c000b14:	20726d54 	.word	0x20726d54
 c000b18:	00637653 	.word	0x00637653

0c000b1c <xTimerGenericCommand>:
 c000b1c:	b5fb      	push	{r0, r1, r3, r4, r5, r6, r7, lr}
 c000b1e:	b084      	sub	sp, #16
 c000b20:	0004      	movs	r4, r0
 c000b22:	0015      	movs	r5, r2
 c000b24:	2600      	movs	r6, #0
 c000b26:	f7ff fde9 	bl	c0006fc <xTaskGetCurrentTaskHandle>
 c000b2a:	4f7b      	ldr	r7, [pc, #492]	; (c000d18 <.text_16>)
 c000b2c:	68f9      	ldr	r1, [r7, #12]
 c000b2e:	4288      	cmp	r0, r1
 c000b30:	d12e      	bne.n	c000b90 <xTimerGenericCommand+0x74>
 c000b32:	9805      	ldr	r0, [sp, #20]
 c000b34:	2803      	cmp	r0, #3
 c000b36:	d001      	beq.n	c000b3c <xTimerGenericCommand+0x20>
 c000b38:	2804      	cmp	r0, #4
 c000b3a:	d129      	bne.n	c000b90 <xTimerGenericCommand+0x74>
 c000b3c:	f7ff fc7b 	bl	c000436 <xTaskGetTickCount>
 c000b40:	0006      	movs	r6, r0
 c000b42:	6960      	ldr	r0, [r4, #20]
 c000b44:	b110      	cbz	r0, c000b4c <xTimerGenericCommand+0x30>
 c000b46:	1d20      	adds	r0, r4, #4
 c000b48:	f7ff ff16 	bl	c000978 <uxListRemove>
 c000b4c:	9805      	ldr	r0, [sp, #20]
 c000b4e:	2803      	cmp	r0, #3
 c000b50:	d01a      	beq.n	c000b88 <xTimerGenericCommand+0x6c>
 c000b52:	d31b      	bcc.n	c000b8c <xTimerGenericCommand+0x70>
 c000b54:	2805      	cmp	r0, #5
 c000b56:	d001      	beq.n	c000b5c <xTimerGenericCommand+0x40>
 c000b58:	d308      	bcc.n	c000b6c <xTimerGenericCommand+0x50>
 c000b5a:	e017      	b.n	c000b8c <xTimerGenericCommand+0x70>
 c000b5c:	2028      	movs	r0, #40	; 0x28
 c000b5e:	5c20      	ldrb	r0, [r4, r0]
 c000b60:	0780      	lsls	r0, r0, #30
 c000b62:	d411      	bmi.n	c000b88 <xTimerGenericCommand+0x6c>
 c000b64:	0020      	movs	r0, r4
 c000b66:	f7ff faaa 	bl	c0000be <vPortFree>
 c000b6a:	e00f      	b.n	c000b8c <xTimerGenericCommand+0x70>
 c000b6c:	2028      	movs	r0, #40	; 0x28
 c000b6e:	5c20      	ldrb	r0, [r4, r0]
 c000b70:	2101      	movs	r1, #1
 c000b72:	4301      	orrs	r1, r0
 c000b74:	2028      	movs	r0, #40	; 0x28
 c000b76:	5421      	strb	r1, [r4, r0]
 c000b78:	61a5      	str	r5, [r4, #24]
 c000b7a:	0033      	movs	r3, r6
 c000b7c:	0032      	movs	r2, r6
 c000b7e:	1971      	adds	r1, r6, r5
 c000b80:	0020      	movs	r0, r4
 c000b82:	f000 f8ae 	bl	c000ce2 <prvInsertTimerInActiveList>
 c000b86:	e001      	b.n	c000b8c <xTimerGenericCommand+0x70>
 c000b88:	f000 f92e 	bl	c000de8 <.text_20>
 c000b8c:	2001      	movs	r0, #1
 c000b8e:	e01d      	b.n	c000bcc <xTimerGenericCommand+0xb0>
 c000b90:	68b8      	ldr	r0, [r7, #8]
 c000b92:	b1d0      	cbz	r0, c000bca <xTimerGenericCommand+0xae>
 c000b94:	9905      	ldr	r1, [sp, #20]
 c000b96:	9100      	str	r1, [sp, #0]
 c000b98:	9501      	str	r5, [sp, #4]
 c000b9a:	9402      	str	r4, [sp, #8]
 c000b9c:	9905      	ldr	r1, [sp, #20]
 c000b9e:	2906      	cmp	r1, #6
 c000ba0:	da0d      	bge.n	c000bbe <xTimerGenericCommand+0xa2>
 c000ba2:	f7ff fdae 	bl	c000702 <xTaskGetSchedulerState>
 c000ba6:	2802      	cmp	r0, #2
 c000ba8:	d102      	bne.n	c000bb0 <xTimerGenericCommand+0x94>
 c000baa:	9a0c      	ldr	r2, [sp, #48]	; 0x30
 c000bac:	2300      	movs	r3, #0
 c000bae:	e001      	b.n	c000bb4 <xTimerGenericCommand+0x98>
 c000bb0:	2300      	movs	r3, #0
 c000bb2:	2200      	movs	r2, #0
 c000bb4:	4669      	mov	r1, sp
 c000bb6:	68b8      	ldr	r0, [r7, #8]
 c000bb8:	f000 fb45 	bl	c001246 <xQueueGenericSend>
 c000bbc:	e004      	b.n	c000bc8 <xTimerGenericCommand+0xac>
 c000bbe:	9a06      	ldr	r2, [sp, #24]
 c000bc0:	2300      	movs	r3, #0
 c000bc2:	4669      	mov	r1, sp
 c000bc4:	f000 fb9f 	bl	c001306 <xQueueGenericSendFromISR>
 c000bc8:	0006      	movs	r6, r0
 c000bca:	0030      	movs	r0, r6
 c000bcc:	b007      	add	sp, #28
 c000bce:	bdf0      	pop	{r4, r5, r6, r7, pc}

0c000bd0 <prvTimerTask>:
 c000bd0:	b5fe      	push	{r1, r2, r3, r4, r5, r6, r7, lr}
 c000bd2:	4f51      	ldr	r7, [pc, #324]	; (c000d18 <.text_16>)
 c000bd4:	e013      	b.n	c000bfe <prvTimerTask+0x2e>
 c000bd6:	f7ff fbf6 	bl	c0003c6 <xTaskResumeAll>
 c000bda:	e00e      	b.n	c000bfa <prvTimerTask+0x2a>
 c000bdc:	6878      	ldr	r0, [r7, #4]
 c000bde:	6800      	ldr	r0, [r0, #0]
 c000be0:	1e45      	subs	r5, r0, #1
 c000be2:	41ad      	sbcs	r5, r5
 c000be4:	0fed      	lsrs	r5, r5, #31
 c000be6:	002a      	movs	r2, r5
 c000be8:	1ba1      	subs	r1, r4, r6
 c000bea:	68b8      	ldr	r0, [r7, #8]
 c000bec:	f000 fd63 	bl	c0016b6 <vQueueWaitForMessageRestricted>
 c000bf0:	f7ff fbe9 	bl	c0003c6 <xTaskResumeAll>
 c000bf4:	b908      	cbnz	r0, c000bfa <prvTimerTask+0x2a>
 c000bf6:	f7ff ff13 	bl	c000a20 <vPortYield>
 c000bfa:	f000 f891 	bl	c000d20 <prvProcessReceivedCommands>
 c000bfe:	6838      	ldr	r0, [r7, #0]
 c000c00:	6801      	ldr	r1, [r0, #0]
 c000c02:	b911      	cbnz	r1, c000c0a <prvTimerTask+0x3a>
 c000c04:	2501      	movs	r5, #1
 c000c06:	2400      	movs	r4, #0
 c000c08:	e002      	b.n	c000c10 <prvTimerTask+0x40>
 c000c0a:	2500      	movs	r5, #0
 c000c0c:	68c0      	ldr	r0, [r0, #12]
 c000c0e:	6804      	ldr	r4, [r0, #0]
 c000c10:	f7ff fbc2 	bl	c000398 <vTaskSuspendAll>
 c000c14:	a801      	add	r0, sp, #4
 c000c16:	f000 f82d 	bl	c000c74 <prvSampleTimeNow>
 c000c1a:	0006      	movs	r6, r0
 c000c1c:	9801      	ldr	r0, [sp, #4]
 c000c1e:	2800      	cmp	r0, #0
 c000c20:	d1d9      	bne.n	c000bd6 <prvTimerTask+0x6>
 c000c22:	2d00      	cmp	r5, #0
 c000c24:	d1da      	bne.n	c000bdc <prvTimerTask+0xc>
 c000c26:	42a6      	cmp	r6, r4
 c000c28:	d3dd      	bcc.n	c000be6 <prvTimerTask+0x16>
 c000c2a:	f7ff fbcc 	bl	c0003c6 <xTaskResumeAll>
 c000c2e:	6838      	ldr	r0, [r7, #0]
 c000c30:	68c0      	ldr	r0, [r0, #12]
 c000c32:	68c5      	ldr	r5, [r0, #12]
 c000c34:	1d28      	adds	r0, r5, #4
 c000c36:	f7ff fe9f 	bl	c000978 <uxListRemove>
 c000c3a:	2028      	movs	r0, #40	; 0x28
 c000c3c:	5c28      	ldrb	r0, [r5, r0]
 c000c3e:	0741      	lsls	r1, r0, #29
 c000c40:	d510      	bpl.n	c000c64 <prvTimerTask+0x94>
 c000c42:	0023      	movs	r3, r4
 c000c44:	0032      	movs	r2, r6
 c000c46:	69a8      	ldr	r0, [r5, #24]
 c000c48:	1821      	adds	r1, r4, r0
 c000c4a:	0028      	movs	r0, r5
 c000c4c:	f000 f849 	bl	c000ce2 <prvInsertTimerInActiveList>
 c000c50:	b160      	cbz	r0, c000c6c <prvTimerTask+0x9c>
 c000c52:	2000      	movs	r0, #0
 c000c54:	9000      	str	r0, [sp, #0]
 c000c56:	2300      	movs	r3, #0
 c000c58:	0022      	movs	r2, r4
 c000c5a:	2100      	movs	r1, #0
 c000c5c:	0028      	movs	r0, r5
 c000c5e:	f7ff ff5d 	bl	c000b1c <xTimerGenericCommand>
 c000c62:	e003      	b.n	c000c6c <prvTimerTask+0x9c>
 c000c64:	21fe      	movs	r1, #254	; 0xfe
 c000c66:	4001      	ands	r1, r0
 c000c68:	2028      	movs	r0, #40	; 0x28
 c000c6a:	5429      	strb	r1, [r5, r0]
 c000c6c:	0028      	movs	r0, r5
 c000c6e:	6a29      	ldr	r1, [r5, #32]
 c000c70:	4788      	blx	r1
 c000c72:	e7c2      	b.n	c000bfa <prvTimerTask+0x2a>

0c000c74 <prvSampleTimeNow>:
 c000c74:	b5f1      	push	{r0, r4, r5, r6, r7, lr}
 c000c76:	b082      	sub	sp, #8
 c000c78:	f7ff fbdd 	bl	c000436 <xTaskGetTickCount>
 c000c7c:	0007      	movs	r7, r0
 c000c7e:	4e26      	ldr	r6, [pc, #152]	; (c000d18 <.text_16>)
 c000c80:	6930      	ldr	r0, [r6, #16]
 c000c82:	4287      	cmp	r7, r0
 c000c84:	d30b      	bcc.n	c000c9e <prvSampleTimeNow+0x2a>
 c000c86:	2000      	movs	r0, #0
 c000c88:	9902      	ldr	r1, [sp, #8]
 c000c8a:	6008      	str	r0, [r1, #0]
 c000c8c:	6137      	str	r7, [r6, #16]
 c000c8e:	0038      	movs	r0, r7
 c000c90:	bdfe      	pop	{r1, r2, r3, r4, r5, r6, r7, pc}
 c000c92:	6060      	str	r0, [r4, #4]
 c000c94:	6124      	str	r4, [r4, #16]
 c000c96:	1d21      	adds	r1, r4, #4
 c000c98:	6830      	ldr	r0, [r6, #0]
 c000c9a:	f7ff fe52 	bl	c000942 <vListInsert>
 c000c9e:	6830      	ldr	r0, [r6, #0]
 c000ca0:	6801      	ldr	r1, [r0, #0]
 c000ca2:	b1c9      	cbz	r1, c000cd8 <prvSampleTimeNow+0x64>
 c000ca4:	68c0      	ldr	r0, [r0, #12]
 c000ca6:	6805      	ldr	r5, [r0, #0]
 c000ca8:	68c4      	ldr	r4, [r0, #12]
 c000caa:	1d20      	adds	r0, r4, #4
 c000cac:	f7ff fe64 	bl	c000978 <uxListRemove>
 c000cb0:	0020      	movs	r0, r4
 c000cb2:	6a21      	ldr	r1, [r4, #32]
 c000cb4:	4788      	blx	r1
 c000cb6:	2028      	movs	r0, #40	; 0x28
 c000cb8:	5c20      	ldrb	r0, [r4, r0]
 c000cba:	0740      	lsls	r0, r0, #29
 c000cbc:	d5ef      	bpl.n	c000c9e <prvSampleTimeNow+0x2a>
 c000cbe:	69a0      	ldr	r0, [r4, #24]
 c000cc0:	1828      	adds	r0, r5, r0
 c000cc2:	4285      	cmp	r5, r0
 c000cc4:	d3e5      	bcc.n	c000c92 <prvSampleTimeNow+0x1e>
 c000cc6:	2000      	movs	r0, #0
 c000cc8:	9000      	str	r0, [sp, #0]
 c000cca:	2300      	movs	r3, #0
 c000ccc:	002a      	movs	r2, r5
 c000cce:	2100      	movs	r1, #0
 c000cd0:	0020      	movs	r0, r4
 c000cd2:	f7ff ff23 	bl	c000b1c <xTimerGenericCommand>
 c000cd6:	e7e2      	b.n	c000c9e <prvSampleTimeNow+0x2a>
 c000cd8:	6871      	ldr	r1, [r6, #4]
 c000cda:	6031      	str	r1, [r6, #0]
 c000cdc:	6070      	str	r0, [r6, #4]
 c000cde:	2001      	movs	r0, #1
 c000ce0:	e7d2      	b.n	c000c88 <prvSampleTimeNow+0x14>

0c000ce2 <prvInsertTimerInActiveList>:
 c000ce2:	b538      	push	{r3, r4, r5, lr}
 c000ce4:	2400      	movs	r4, #0
 c000ce6:	6041      	str	r1, [r0, #4]
 c000ce8:	6100      	str	r0, [r0, #16]
 c000cea:	4d0b      	ldr	r5, [pc, #44]	; (c000d18 <.text_16>)
 c000cec:	428a      	cmp	r2, r1
 c000cee:	d306      	bcc.n	c000cfe <prvInsertTimerInActiveList+0x1c>
 c000cf0:	1ad1      	subs	r1, r2, r3
 c000cf2:	6982      	ldr	r2, [r0, #24]
 c000cf4:	4291      	cmp	r1, r2
 c000cf6:	d206      	bcs.n	c000d06 <prvInsertTimerInActiveList+0x24>
 c000cf8:	1d01      	adds	r1, r0, #4
 c000cfa:	6868      	ldr	r0, [r5, #4]
 c000cfc:	e007      	b.n	c000d0e <prvInsertTimerInActiveList+0x2c>
 c000cfe:	429a      	cmp	r2, r3
 c000d00:	d203      	bcs.n	c000d0a <prvInsertTimerInActiveList+0x28>
 c000d02:	4299      	cmp	r1, r3
 c000d04:	d301      	bcc.n	c000d0a <prvInsertTimerInActiveList+0x28>
 c000d06:	2401      	movs	r4, #1
 c000d08:	e003      	b.n	c000d12 <prvInsertTimerInActiveList+0x30>
 c000d0a:	1d01      	adds	r1, r0, #4
 c000d0c:	6828      	ldr	r0, [r5, #0]
 c000d0e:	f7ff fe18 	bl	c000942 <vListInsert>
 c000d12:	0020      	movs	r0, r4
 c000d14:	bd32      	pop	{r1, r4, r5, pc}
	...

0c000d18 <.text_16>:
 c000d18:	00089b58 	.word	0x00089b58

0c000d1c <.text_17>:
 c000d1c:	0c000bd1 	.word	0x0c000bd1

0c000d20 <prvProcessReceivedCommands>:
 c000d20:	b570      	push	{r4, r5, r6, lr}
 c000d22:	b086      	sub	sp, #24
 c000d24:	2501      	movs	r5, #1
 c000d26:	4e42      	ldr	r6, [pc, #264]	; (c000e30 <.text_30>)
 c000d28:	e008      	b.n	c000d3c <prvProcessReceivedCommands+0x1c>
 c000d2a:	f000 f857 	bl	c000ddc <.text_19>
 c000d2e:	9803      	ldr	r0, [sp, #12]
 c000d30:	61a0      	str	r0, [r4, #24]
 c000d32:	0013      	movs	r3, r2
 c000d34:	1811      	adds	r1, r2, r0
 c000d36:	0020      	movs	r0, r4
 c000d38:	f7ff ffd3 	bl	c000ce2 <prvInsertTimerInActiveList>
 c000d3c:	2200      	movs	r2, #0
 c000d3e:	a902      	add	r1, sp, #8
 c000d40:	68b0      	ldr	r0, [r6, #8]
 c000d42:	f000 fb41 	bl	c0013c8 <xQueueReceive>
 c000d46:	2800      	cmp	r0, #0
 c000d48:	d046      	beq.n	c000dd8 <prvProcessReceivedCommands+0xb8>
 c000d4a:	9802      	ldr	r0, [sp, #8]
 c000d4c:	2800      	cmp	r0, #0
 c000d4e:	d503      	bpl.n	c000d58 <prvProcessReceivedCommands+0x38>
 c000d50:	9905      	ldr	r1, [sp, #20]
 c000d52:	9804      	ldr	r0, [sp, #16]
 c000d54:	9a03      	ldr	r2, [sp, #12]
 c000d56:	4790      	blx	r2
 c000d58:	9802      	ldr	r0, [sp, #8]
 c000d5a:	2800      	cmp	r0, #0
 c000d5c:	d4ee      	bmi.n	c000d3c <prvProcessReceivedCommands+0x1c>
 c000d5e:	9c04      	ldr	r4, [sp, #16]
 c000d60:	6960      	ldr	r0, [r4, #20]
 c000d62:	b110      	cbz	r0, c000d6a <prvProcessReceivedCommands+0x4a>
 c000d64:	1d20      	adds	r0, r4, #4
 c000d66:	f7ff fe07 	bl	c000978 <uxListRemove>
 c000d6a:	a801      	add	r0, sp, #4
 c000d6c:	f7ff ff82 	bl	c000c74 <prvSampleTimeNow>
 c000d70:	0002      	movs	r2, r0
 c000d72:	9802      	ldr	r0, [sp, #8]
 c000d74:	2809      	cmp	r0, #9
 c000d76:	d8e1      	bhi.n	c000d3c <prvProcessReceivedCommands+0x1c>
 c000d78:	a101      	add	r1, pc, #4	; (adr r1, c000d80 <prvProcessReceivedCommands+0x60>)
 c000d7a:	5609      	ldrsb	r1, [r1, r0]
 c000d7c:	448f      	add	pc, r1
 c000d7e:	bf00      	nop
 c000d80:	520a0a0a 	.word	0x520a0a0a
 c000d84:	0a0a42aa 	.word	0x0a0a42aa
 c000d88:	aa52      	.short	0xaa52
 c000d8a:	f000 f827 	bl	c000ddc <.text_19>
 c000d8e:	9b03      	ldr	r3, [sp, #12]
 c000d90:	69a0      	ldr	r0, [r4, #24]
 c000d92:	1819      	adds	r1, r3, r0
 c000d94:	0020      	movs	r0, r4
 c000d96:	f7ff ffa4 	bl	c000ce2 <prvInsertTimerInActiveList>
 c000d9a:	2800      	cmp	r0, #0
 c000d9c:	d0ce      	beq.n	c000d3c <prvProcessReceivedCommands+0x1c>
 c000d9e:	0020      	movs	r0, r4
 c000da0:	6a21      	ldr	r1, [r4, #32]
 c000da2:	4788      	blx	r1
 c000da4:	2028      	movs	r0, #40	; 0x28
 c000da6:	5c20      	ldrb	r0, [r4, r0]
 c000da8:	0740      	lsls	r0, r0, #29
 c000daa:	d5c7      	bpl.n	c000d3c <prvProcessReceivedCommands+0x1c>
 c000dac:	2000      	movs	r0, #0
 c000dae:	9000      	str	r0, [sp, #0]
 c000db0:	2300      	movs	r3, #0
 c000db2:	9803      	ldr	r0, [sp, #12]
 c000db4:	69a1      	ldr	r1, [r4, #24]
 c000db6:	1842      	adds	r2, r0, r1
 c000db8:	2100      	movs	r1, #0
 c000dba:	0020      	movs	r0, r4
 c000dbc:	f7ff feae 	bl	c000b1c <xTimerGenericCommand>
 c000dc0:	e7bc      	b.n	c000d3c <prvProcessReceivedCommands+0x1c>
 c000dc2:	2028      	movs	r0, #40	; 0x28
 c000dc4:	5c20      	ldrb	r0, [r4, r0]
 c000dc6:	0780      	lsls	r0, r0, #30
 c000dc8:	d403      	bmi.n	c000dd2 <prvProcessReceivedCommands+0xb2>
 c000dca:	0020      	movs	r0, r4
 c000dcc:	f7ff f977 	bl	c0000be <vPortFree>
 c000dd0:	e7b4      	b.n	c000d3c <prvProcessReceivedCommands+0x1c>
 c000dd2:	f000 f809 	bl	c000de8 <.text_20>
 c000dd6:	e7b1      	b.n	c000d3c <prvProcessReceivedCommands+0x1c>
 c000dd8:	b006      	add	sp, #24
 c000dda:	bd70      	pop	{r4, r5, r6, pc}

0c000ddc <.text_19>:
 c000ddc:	2028      	movs	r0, #40	; 0x28
 c000dde:	5c20      	ldrb	r0, [r4, r0]
 c000de0:	4328      	orrs	r0, r5
 c000de2:	2128      	movs	r1, #40	; 0x28
 c000de4:	5460      	strb	r0, [r4, r1]
 c000de6:	4770      	bx	lr

0c000de8 <.text_20>:
 c000de8:	2028      	movs	r0, #40	; 0x28
 c000dea:	5c20      	ldrb	r0, [r4, r0]
 c000dec:	21fe      	movs	r1, #254	; 0xfe
 c000dee:	4001      	ands	r1, r0
 c000df0:	2028      	movs	r0, #40	; 0x28
 c000df2:	5421      	strb	r1, [r4, r0]
 c000df4:	4770      	bx	lr

0c000df6 <prvCheckForValidListAndQueue>:
 c000df6:	b510      	push	{r4, lr}
 c000df8:	f7ff fe18 	bl	c000a2c <vPortEnterCritical>
 c000dfc:	4c0c      	ldr	r4, [pc, #48]	; (c000e30 <.text_30>)
 c000dfe:	68a0      	ldr	r0, [r4, #8]
 c000e00:	b998      	cbnz	r0, c000e2a <prvCheckForValidListAndQueue+0x34>
 c000e02:	0020      	movs	r0, r4
 c000e04:	3014      	adds	r0, #20
 c000e06:	f7ff fd7e 	bl	c000906 <vListInitialise>
 c000e0a:	0020      	movs	r0, r4
 c000e0c:	3028      	adds	r0, #40	; 0x28
 c000e0e:	f7ff fd7a 	bl	c000906 <vListInitialise>
 c000e12:	0020      	movs	r0, r4
 c000e14:	3014      	adds	r0, #20
 c000e16:	6020      	str	r0, [r4, #0]
 c000e18:	0020      	movs	r0, r4
 c000e1a:	3028      	adds	r0, #40	; 0x28
 c000e1c:	6060      	str	r0, [r4, #4]
 c000e1e:	2200      	movs	r2, #0
 c000e20:	2110      	movs	r1, #16
 c000e22:	200a      	movs	r0, #10
 c000e24:	f000 f9e7 	bl	c0011f6 <xQueueGenericCreate>
 c000e28:	60a0      	str	r0, [r4, #8]
 c000e2a:	f7ff fe0b 	bl	c000a44 <vPortExitCritical>
 c000e2e:	bd10      	pop	{r4, pc}

0c000e30 <.text_30>:
 c000e30:	00089b58 	.word	0x00089b58

0c000e34 <?Veneer 21 (3) for SYSTIMER_TickGet>:
 c000e34:	b408      	push	{r3}
 c000e36:	4b02      	ldr	r3, [pc, #8]	; (c000e40 <?Veneer 21 (3) for SYSTIMER_TickGet+0xc>)
 c000e38:	469c      	mov	ip, r3
 c000e3a:	bc08      	pop	{r3}
 c000e3c:	4760      	bx	ip
 c000e3e:	46c0      	nop			; (mov r8, r8)
 c000e40:	00003885 	.word	0x00003885

0c000e44 <?Veneer 29 (3) for SOCPS_AONTimerCmd>:
 c000e44:	b408      	push	{r3}
 c000e46:	4b02      	ldr	r3, [pc, #8]	; (c000e50 <?Veneer 29 (3) for SOCPS_AONTimerCmd+0xc>)
 c000e48:	469c      	mov	ip, r3
 c000e4a:	bc08      	pop	{r3}
 c000e4c:	4760      	bx	ip
 c000e4e:	46c0      	nop			; (mov r8, r8)
 c000e50:	00083633 	.word	0x00083633

0c000e54 <?Veneer 36 (3) for BKUP_Read>:
 c000e54:	b408      	push	{r3}
 c000e56:	4b02      	ldr	r3, [pc, #8]	; (c000e60 <?Veneer 36 (3) for BKUP_Read+0xc>)
 c000e58:	469c      	mov	ip, r3
 c000e5a:	bc08      	pop	{r3}
 c000e5c:	4760      	bx	ip
 c000e5e:	46c0      	nop			; (mov r8, r8)
 c000e60:	00001435 	.word	0x00001435

0c000e64 <?Veneer 49 (3) for SOCPS_AONTimer>:
 c000e64:	b408      	push	{r3}
 c000e66:	4b02      	ldr	r3, [pc, #8]	; (c000e70 <?Veneer 49 (3) for SOCPS_AONTimer+0xc>)
 c000e68:	469c      	mov	ip, r3
 c000e6a:	bc08      	pop	{r3}
 c000e6c:	4760      	bx	ip
 c000e6e:	46c0      	nop			; (mov r8, r8)
 c000e70:	00083609 	.word	0x00083609

0c000e74 <?Veneer 90 (3) for SOCPS_SetWakeEventAON>:
 c000e74:	b408      	push	{r3}
 c000e76:	4b02      	ldr	r3, [pc, #8]	; (c000e80 <?Veneer 90 (3) for SOCPS_SetWakeEventAON+0xc>)
 c000e78:	469c      	mov	ip, r3
 c000e7a:	bc08      	pop	{r3}
 c000e7c:	4760      	bx	ip
 c000e7e:	46c0      	nop			; (mov r8, r8)
 c000e80:	00083bbd 	.word	0x00083bbd

0c000e84 <?Veneer 93 (3) for SOCPS_SWRLDO_Suspend>:
 c000e84:	b408      	push	{r3}
 c000e86:	4b02      	ldr	r3, [pc, #8]	; (c000e90 <?Veneer 93 (3) for SOCPS_SWRLDO_Suspend+0xc>)
 c000e88:	469c      	mov	ip, r3
 c000e8a:	bc08      	pop	{r3}
 c000e8c:	4760      	bx	ip
 c000e8e:	46c0      	nop			; (mov r8, r8)
 c000e90:	00083c5f 	.word	0x00083c5f

0c000e94 <?Veneer 94 (3) for SOCPS_SleepPG>:
 c000e94:	b408      	push	{r3}
 c000e96:	4b02      	ldr	r3, [pc, #8]	; (c000ea0 <?Veneer 94 (3) for SOCPS_SleepPG+0xc>)
 c000e98:	469c      	mov	ip, r3
 c000e9a:	bc08      	pop	{r3}
 c000e9c:	4760      	bx	ip
 c000e9e:	46c0      	nop			; (mov r8, r8)
 c000ea0:	00083945 	.word	0x00083945

0c000ea4 <?Veneer 95 (3) for SOCPS_SleepCG>:
 c000ea4:	b408      	push	{r3}
 c000ea6:	4b02      	ldr	r3, [pc, #8]	; (c000eb0 <?Veneer 95 (3) for SOCPS_SleepCG+0xc>)
 c000ea8:	469c      	mov	ip, r3
 c000eaa:	bc08      	pop	{r3}
 c000eac:	4760      	bx	ip
 c000eae:	46c0      	nop			; (mov r8, r8)
 c000eb0:	00083895 	.word	0x00083895

0c000eb4 <pmu_exec_sleep_hook_funs>:
 c000eb4:	b530      	push	{r4, r5, lr}
 c000eb6:	b081      	sub	sp, #4
 c000eb8:	2400      	movs	r4, #0
 c000eba:	4d8f      	ldr	r5, [pc, #572]	; (c0010f8 <.text_25>)
 c000ebc:	682a      	ldr	r2, [r5, #0]
 c000ebe:	b11a      	cbz	r2, c000ec8 <pmu_exec_sleep_hook_funs+0x14>
 c000ec0:	6869      	ldr	r1, [r5, #4]
 c000ec2:	2000      	movs	r0, #0
 c000ec4:	4790      	blx	r2
 c000ec6:	b118      	cbz	r0, c000ed0 <pmu_exec_sleep_hook_funs+0x1c>
 c000ec8:	1c64      	adds	r4, r4, #1
 c000eca:	3514      	adds	r5, #20
 c000ecc:	2c1f      	cmp	r4, #31
 c000ece:	d3f5      	bcc.n	c000ebc <pmu_exec_sleep_hook_funs+0x8>
 c000ed0:	0020      	movs	r0, r4
 c000ed2:	b001      	add	sp, #4
 c000ed4:	bd30      	pop	{r4, r5, pc}

0c000ed6 <pmu_exec_wakeup_hook_funs>:
 c000ed6:	b530      	push	{r4, r5, lr}
 c000ed8:	b081      	sub	sp, #4
 c000eda:	0004      	movs	r4, r0
 c000edc:	d008      	beq.n	c000ef0 <pmu_exec_wakeup_hook_funs+0x1a>
 c000ede:	4d90      	ldr	r5, [pc, #576]	; (c001120 <.text_29>)
 c000ee0:	682a      	ldr	r2, [r5, #0]
 c000ee2:	b112      	cbz	r2, c000eea <pmu_exec_wakeup_hook_funs+0x14>
 c000ee4:	6869      	ldr	r1, [r5, #4]
 c000ee6:	2000      	movs	r0, #0
 c000ee8:	4790      	blx	r2
 c000eea:	3514      	adds	r5, #20
 c000eec:	1e64      	subs	r4, r4, #1
 c000eee:	d1f7      	bne.n	c000ee0 <pmu_exec_wakeup_hook_funs+0xa>
 c000ef0:	b001      	add	sp, #4
 c000ef2:	bd30      	pop	{r4, r5, pc}

0c000ef4 <freertos_systick_check>:
 c000ef4:	4281      	cmp	r1, r0
 c000ef6:	d201      	bcs.n	c000efc <freertos_systick_check+0x8>
 c000ef8:	1a42      	subs	r2, r0, r1
 c000efa:	e000      	b.n	c000efe <freertos_systick_check+0xa>
 c000efc:	1a0a      	subs	r2, r1, r0
 c000efe:	4b8d      	ldr	r3, [pc, #564]	; (c001134 <.text_34>)
 c000f00:	429a      	cmp	r2, r3
 c000f02:	d201      	bcs.n	c000f08 <freertos_systick_check+0x14>
 c000f04:	4288      	cmp	r0, r1
 c000f06:	e000      	b.n	c000f0a <freertos_systick_check+0x16>
 c000f08:	4281      	cmp	r1, r0
 c000f0a:	4180      	sbcs	r0, r0
 c000f0c:	43c0      	mvns	r0, r0
 c000f0e:	0fc0      	lsrs	r0, r0, #31
 c000f10:	4770      	bx	lr

0c000f12 <pmu_set_sysactive_time>:
 c000f12:	b538      	push	{r3, r4, r5, lr}
 c000f14:	0005      	movs	r5, r0
 c000f16:	4c88      	ldr	r4, [pc, #544]	; (c001138 <.text_35>)
 c000f18:	6920      	ldr	r0, [r4, #16]
 c000f1a:	6961      	ldr	r1, [r4, #20]
 c000f1c:	b131      	cbz	r1, c000f2c <pmu_set_sysactive_time+0x1a>
 c000f1e:	6920      	ldr	r0, [r4, #16]
 c000f20:	4285      	cmp	r5, r0
 c000f22:	d200      	bcs.n	c000f26 <pmu_set_sysactive_time+0x14>
 c000f24:	0005      	movs	r5, r0
 c000f26:	6125      	str	r5, [r4, #16]
 c000f28:	2001      	movs	r0, #1
 c000f2a:	bd32      	pop	{r1, r4, r5, pc}
 c000f2c:	4285      	cmp	r5, r0
 c000f2e:	d200      	bcs.n	c000f32 <pmu_set_sysactive_time+0x20>
 c000f30:	0005      	movs	r5, r0
 c000f32:	2000      	movs	r0, #0
 c000f34:	6120      	str	r0, [r4, #16]
 c000f36:	f7ff fa7e 	bl	c000436 <xTaskGetTickCount>
 c000f3a:	1945      	adds	r5, r0, r5
 c000f3c:	68a1      	ldr	r1, [r4, #8]
 c000f3e:	0028      	movs	r0, r5
 c000f40:	f7ff ffd8 	bl	c000ef4 <freertos_systick_check>
 c000f44:	b100      	cbz	r0, c000f48 <pmu_set_sysactive_time+0x36>
 c000f46:	60a5      	str	r5, [r4, #8]
 c000f48:	2000      	movs	r0, #0
 c000f4a:	bd32      	pop	{r1, r4, r5, pc}

0c000f4c <freertos_ready_to_sleep>:
 c000f4c:	b530      	push	{r4, r5, lr}
 c000f4e:	b081      	sub	sp, #4
 c000f50:	f7ff fa71 	bl	c000436 <xTaskGetTickCount>
 c000f54:	0004      	movs	r4, r0
 c000f56:	4d78      	ldr	r5, [pc, #480]	; (c001138 <.text_35>)
 c000f58:	68a9      	ldr	r1, [r5, #8]
 c000f5a:	f7ff ffcb 	bl	c000ef4 <freertos_systick_check>
 c000f5e:	b1a8      	cbz	r0, c000f8c <freertos_ready_to_sleep+0x40>
 c000f60:	6868      	ldr	r0, [r5, #4]
 c000f62:	b998      	cbnz	r0, c000f8c <freertos_ready_to_sleep+0x40>
 c000f64:	487b      	ldr	r0, [pc, #492]	; (c001154 <.text_45>)
 c000f66:	6800      	ldr	r0, [r0, #0]
 c000f68:	4284      	cmp	r4, r0
 c000f6a:	d20f      	bcs.n	c000f8c <freertos_ready_to_sleep+0x40>
 c000f6c:	2100      	movs	r1, #0
 c000f6e:	43c9      	mvns	r1, r1
 c000f70:	4288      	cmp	r0, r1
 c000f72:	d009      	beq.n	c000f88 <freertos_ready_to_sleep+0x3c>
 c000f74:	1b00      	subs	r0, r0, r4
 c000f76:	f7ff ff75 	bl	c000e64 <?Veneer 49 (3) for SOCPS_AONTimer>
 c000f7a:	2101      	movs	r1, #1
 c000f7c:	2002      	movs	r0, #2
 c000f7e:	f7ff ff79 	bl	c000e74 <?Veneer 90 (3) for SOCPS_SetWakeEventAON>
 c000f82:	2001      	movs	r0, #1
 c000f84:	f7ff ff5e 	bl	c000e44 <?Veneer 29 (3) for SOCPS_AONTimerCmd>
 c000f88:	2001      	movs	r0, #1
 c000f8a:	e000      	b.n	c000f8e <freertos_ready_to_sleep+0x42>
 c000f8c:	2000      	movs	r0, #0
 c000f8e:	b001      	add	sp, #4
 c000f90:	bd30      	pop	{r4, r5, pc}

0c000f92 <freertos_ready_to_dsleep>:
 c000f92:	b500      	push	{lr}
 c000f94:	b081      	sub	sp, #4
 c000f96:	f7ff fa4e 	bl	c000436 <xTaskGetTickCount>
 c000f9a:	496f      	ldr	r1, [pc, #444]	; (c001158 <.text_46>)
 c000f9c:	684a      	ldr	r2, [r1, #4]
 c000f9e:	4290      	cmp	r0, r2
 c000fa0:	d201      	bcs.n	c000fa6 <freertos_ready_to_dsleep+0x14>
 c000fa2:	2000      	movs	r0, #0
 c000fa4:	e003      	b.n	c000fae <freertos_ready_to_dsleep+0x1c>
 c000fa6:	6808      	ldr	r0, [r1, #0]
 c000fa8:	1e40      	subs	r0, r0, #1
 c000faa:	4180      	sbcs	r0, r0
 c000fac:	0fc0      	lsrs	r0, r0, #31
 c000fae:	b001      	add	sp, #4
 c000fb0:	bd00      	pop	{pc}
	...

0c000fb4 <freertos_pre_sleep_processing>:
 c000fb4:	b5f0      	push	{r4, r5, r6, r7, lr}
 c000fb6:	b081      	sub	sp, #4
 c000fb8:	2500      	movs	r5, #0
 c000fba:	9500      	str	r5, [sp, #0]
 c000fbc:	4967      	ldr	r1, [pc, #412]	; (c00115c <.text_47>)
 c000fbe:	680f      	ldr	r7, [r1, #0]
 c000fc0:	6005      	str	r5, [r0, #0]
 c000fc2:	f7ff ff37 	bl	c000e34 <?Veneer 21 (3) for SYSTIMER_TickGet>
 c000fc6:	0006      	movs	r6, r0
 c000fc8:	4c5b      	ldr	r4, [pc, #364]	; (c001138 <.text_35>)
 c000fca:	2001      	movs	r0, #1
 c000fcc:	6160      	str	r0, [r4, #20]
 c000fce:	f7ff ff59 	bl	c000e84 <?Veneer 93 (3) for SOCPS_SWRLDO_Suspend>
 c000fd2:	f000 fcb7 	bl	c001944 <SOCPS_SleepInit>
 c000fd6:	2000      	movs	r0, #0
 c000fd8:	f7ff ff3c 	bl	c000e54 <?Veneer 36 (3) for BKUP_Read>
 c000fdc:	0500      	lsls	r0, r0, #20
 c000fde:	d409      	bmi.n	c000ff4 <freertos_pre_sleep_processing+0x40>
 c000fe0:	2066      	movs	r0, #102	; 0x66
 c000fe2:	f7ff ff3f 	bl	c000e64 <?Veneer 49 (3) for SOCPS_AONTimer>
 c000fe6:	2101      	movs	r1, #1
 c000fe8:	2002      	movs	r0, #2
 c000fea:	f7ff ff43 	bl	c000e74 <?Veneer 90 (3) for SOCPS_SetWakeEventAON>
 c000fee:	2001      	movs	r0, #1
 c000ff0:	f7ff ff28 	bl	c000e44 <?Veneer 29 (3) for SOCPS_AONTimerCmd>
 c000ff4:	68e0      	ldr	r0, [r4, #12]
 c000ff6:	b910      	cbnz	r0, c000ffe <freertos_pre_sleep_processing+0x4a>
 c000ff8:	f7ff ff4c 	bl	c000e94 <?Veneer 94 (3) for SOCPS_SleepPG>
 c000ffc:	e001      	b.n	c001002 <freertos_pre_sleep_processing+0x4e>
 c000ffe:	f7ff ff51 	bl	c000ea4 <?Veneer 95 (3) for SOCPS_SleepCG>
 c001002:	f7ff ff17 	bl	c000e34 <?Veneer 21 (3) for SYSTIMER_TickGet>
 c001006:	4286      	cmp	r6, r0
 c001008:	d201      	bcs.n	c00100e <freertos_pre_sleep_processing+0x5a>
 c00100a:	1b80      	subs	r0, r0, r6
 c00100c:	e003      	b.n	c001016 <freertos_pre_sleep_processing+0x62>
 c00100e:	2100      	movs	r1, #0
 c001010:	43c9      	mvns	r1, r1
 c001012:	1b89      	subs	r1, r1, r6
 c001014:	1808      	adds	r0, r1, r0
 c001016:	6821      	ldr	r1, [r4, #0]
 c001018:	1840      	adds	r0, r0, r1
 c00101a:	06c1      	lsls	r1, r0, #27
 c00101c:	0ec9      	lsrs	r1, r1, #27
 c00101e:	6021      	str	r1, [r4, #0]
 c001020:	f240 31e8 	movw	r1, #1000	; 0x3e8
 c001024:	0bc2      	lsrs	r2, r0, #15
 c001026:	434a      	muls	r2, r1
 c001028:	0440      	lsls	r0, r0, #17
 c00102a:	0c40      	lsrs	r0, r0, #17
 c00102c:	4348      	muls	r0, r1
 c00102e:	0bc0      	lsrs	r0, r0, #15
 c001030:	1810      	adds	r0, r2, r0
 c001032:	9000      	str	r0, [sp, #0]
 c001034:	9800      	ldr	r0, [sp, #0]
 c001036:	f7ff fa02 	bl	c00043e <vTaskStepTick>
 c00103a:	4848      	ldr	r0, [pc, #288]	; (c00115c <.text_47>)
 c00103c:	6800      	ldr	r0, [r0, #0]
 c00103e:	4949      	ldr	r1, [pc, #292]	; (c001164 <.text_52>)
 c001040:	6889      	ldr	r1, [r1, #8]
 c001042:	b161      	cbz	r1, c00105e <freertos_pre_sleep_processing+0xaa>
 c001044:	4948      	ldr	r1, [pc, #288]	; (c001168 <.text_53>)
 c001046:	6809      	ldr	r1, [r1, #0]
 c001048:	0389      	lsls	r1, r1, #14
 c00104a:	d508      	bpl.n	c00105e <freertos_pre_sleep_processing+0xaa>
 c00104c:	1bc3      	subs	r3, r0, r7
 c00104e:	0042      	lsls	r2, r0, #1
 c001050:	0852      	lsrs	r2, r2, #1
 c001052:	0079      	lsls	r1, r7, #1
 c001054:	0849      	lsrs	r1, r1, #1
 c001056:	bf00      	nop
 c001058:	a047      	add	r0, pc, #284	; (adr r0, c001178 <.text_61>)
 c00105a:	f7ff fca1 	bl	c0009a0 <?Veneer 23 (3) for DiagPrintf>
 c00105e:	6165      	str	r5, [r4, #20]
 c001060:	f7ff f9e9 	bl	c000436 <xTaskGetTickCount>
 c001064:	6921      	ldr	r1, [r4, #16]
 c001066:	2902      	cmp	r1, #2
 c001068:	d800      	bhi.n	c00106c <freertos_pre_sleep_processing+0xb8>
 c00106a:	2102      	movs	r1, #2
 c00106c:	1840      	adds	r0, r0, r1
 c00106e:	60a0      	str	r0, [r4, #8]
 c001070:	6125      	str	r5, [r4, #16]
 c001072:	2000      	movs	r0, #0
 c001074:	f7ff ff06 	bl	c000e84 <?Veneer 93 (3) for SOCPS_SWRLDO_Suspend>
 c001078:	b001      	add	sp, #4
 c00107a:	bdf0      	pop	{r4, r5, r6, r7, pc}

0c00107c <vPortSuppressTicksAndSleep>:
 c00107c:	b570      	push	{r4, r5, r6, lr}
 c00107e:	b082      	sub	sp, #8
 c001080:	0006      	movs	r6, r0
 c001082:	4c33      	ldr	r4, [pc, #204]	; (c001150 <.text_44>)
 c001084:	2000      	movs	r0, #0
 c001086:	6020      	str	r0, [r4, #0]
 c001088:	4d39      	ldr	r5, [pc, #228]	; (c001170 <.text_56>)
 c00108a:	6828      	ldr	r0, [r5, #0]
 c00108c:	2101      	movs	r1, #1
 c00108e:	4388      	bics	r0, r1
 c001090:	6028      	str	r0, [r5, #0]
 c001092:	f7ff fccb 	bl	c000a2c <vPortEnterCritical>
 c001096:	f7ff fb0a 	bl	c0006ae <eTaskConfirmSleepModeStatus>
 c00109a:	b1c8      	cbz	r0, c0010d0 <vPortSuppressTicksAndSleep+0x54>
 c00109c:	f7ff ff56 	bl	c000f4c <freertos_ready_to_sleep>
 c0010a0:	b1b0      	cbz	r0, c0010d0 <vPortSuppressTicksAndSleep+0x54>
 c0010a2:	9600      	str	r6, [sp, #0]
 c0010a4:	4668      	mov	r0, sp
 c0010a6:	f7ff ff85 	bl	c000fb4 <freertos_pre_sleep_processing>
 c0010aa:	9800      	ldr	r0, [sp, #0]
 c0010ac:	2800      	cmp	r0, #0
 c0010ae:	d004      	beq.n	c0010ba <vPortSuppressTicksAndSleep+0x3e>
 c0010b0:	f3bf 8f4f 	dsb	sy
 c0010b4:	bf30      	wfi
 c0010b6:	f3bf 8f6f 	isb	sy
 c0010ba:	482c      	ldr	r0, [pc, #176]	; (c00116c <.text_54>)
 c0010bc:	6800      	ldr	r0, [r0, #0]
 c0010be:	f240 31e8 	movw	r1, #1000	; 0x3e8
 c0010c2:	fbb0 f0f1 	udiv	r0, r0, r1
 c0010c6:	68a9      	ldr	r1, [r5, #8]
 c0010c8:	fbb1 f0f0 	udiv	r0, r1, r0
 c0010cc:	1c40      	adds	r0, r0, #1
 c0010ce:	9000      	str	r0, [sp, #0]
 c0010d0:	f7ff fcb8 	bl	c000a44 <vPortExitCritical>
 c0010d4:	2001      	movs	r0, #1
 c0010d6:	6829      	ldr	r1, [r5, #0]
 c0010d8:	4301      	orrs	r1, r0
 c0010da:	6029      	str	r1, [r5, #0]
 c0010dc:	6020      	str	r0, [r4, #0]
 c0010de:	f000 fe6a 	bl	c001db6 <km4_wake_event_update>
 c0010e2:	f000 fe8c 	bl	c001dfe <km4_get_wake_event>
 c0010e6:	b128      	cbz	r0, c0010f4 <vPortSuppressTicksAndSleep+0x78>
 c0010e8:	f7ff fca0 	bl	c000a2c <vPortEnterCritical>
 c0010ec:	f000 fe8a 	bl	c001e04 <km4_resume>
 c0010f0:	f7ff fca8 	bl	c000a44 <vPortExitCritical>
 c0010f4:	b002      	add	sp, #8
 c0010f6:	bd70      	pop	{r4, r5, r6, pc}

0c0010f8 <.text_25>:
 c0010f8:	00089ce0 	.word	0x00089ce0

0c0010fc <pmu_acquire_wakelock>:
 c0010fc:	4918      	ldr	r1, [pc, #96]	; (c001160 <.text_48>)
 c0010fe:	684a      	ldr	r2, [r1, #4]
 c001100:	2301      	movs	r3, #1
 c001102:	4083      	lsls	r3, r0
 c001104:	4313      	orrs	r3, r2
 c001106:	604b      	str	r3, [r1, #4]
 c001108:	4770      	bx	lr

0c00110a <pmu_release_wakelock>:
 c00110a:	4915      	ldr	r1, [pc, #84]	; (c001160 <.text_48>)
 c00110c:	684a      	ldr	r2, [r1, #4]
 c00110e:	2301      	movs	r3, #1
 c001110:	4083      	lsls	r3, r0
 c001112:	439a      	bics	r2, r3
 c001114:	604a      	str	r2, [r1, #4]
 c001116:	4770      	bx	lr

0c001118 <pmu_get_wakelock_status>:
 c001118:	4811      	ldr	r0, [pc, #68]	; (c001160 <.text_48>)
 c00111a:	6840      	ldr	r0, [r0, #4]
 c00111c:	4770      	bx	lr
	...

0c001120 <.text_29>:
 c001120:	00089ce8 	.word	0x00089ce8

0c001124 <pmu_set_sleep_type>:
 c001124:	490f      	ldr	r1, [pc, #60]	; (c001164 <.text_52>)
 c001126:	6909      	ldr	r1, [r1, #16]
 c001128:	b101      	cbz	r1, c00112c <pmu_set_sleep_type+0x8>
 c00112a:	2000      	movs	r0, #0
 c00112c:	490c      	ldr	r1, [pc, #48]	; (c001160 <.text_48>)
 c00112e:	60c8      	str	r0, [r1, #12]
 c001130:	2000      	movs	r0, #0
 c001132:	4770      	bx	lr

0c001134 <.text_34>:
 c001134:	7fffffff 	.word	0x7fffffff

0c001138 <.text_35>:
 c001138:	00084624 	.word	0x00084624

0c00113c <pmu_get_deepwakelock_status>:
 c00113c:	4806      	ldr	r0, [pc, #24]	; (c001158 <.text_46>)
 c00113e:	6800      	ldr	r0, [r0, #0]
 c001140:	4770      	bx	lr

0c001142 <pmu_tickless_debug>:
 c001142:	2801      	cmp	r0, #1
 c001144:	d000      	beq.n	c001148 <pmu_tickless_debug+0x6>
 c001146:	2000      	movs	r0, #0
 c001148:	490a      	ldr	r1, [pc, #40]	; (c001174 <.text_58>)
 c00114a:	6008      	str	r0, [r1, #0]
 c00114c:	4770      	bx	lr
	...

0c001150 <.text_44>:
 c001150:	0008463c 	.word	0x0008463c

0c001154 <.text_45>:
 c001154:	00083fb0 	.word	0x00083fb0

0c001158 <.text_46>:
 c001158:	00084640 	.word	0x00084640

0c00115c <.text_47>:
 c00115c:	48000098 	.word	0x48000098

0c001160 <.text_48>:
 c001160:	00084624 	.word	0x00084624

0c001164 <.text_52>:
 c001164:	000845e0 	.word	0x000845e0

0c001168 <.text_53>:
 c001168:	000801cc 	.word	0x000801cc

0c00116c <.text_54>:
 c00116c:	00084618 	.word	0x00084618

0c001170 <.text_56>:
 c001170:	e000e010 	.word	0xe000e010

0c001174 <.text_58>:
 c001174:	00089cd8 	.word	0x00089cd8

0c001178 <.text_61>:
 c001178:	20306d0d 	.word	0x20306d0d
 c00117c:	7320736f 	.word	0x7320736f
 c001180:	7065656c 	.word	0x7065656c
 c001184:	5b3a6465 	.word	0x5b3a6465
 c001188:	3e2d6425 	.word	0x3e2d6425
 c00118c:	253a6425 	.word	0x253a6425
 c001190:	75205d64 	.word	0x75205d64
 c001194:	0a73      	.short	0x0a73
	...

0c001198 <xQueueGenericReset>:
 c001198:	b538      	push	{r3, r4, r5, lr}
 c00119a:	0005      	movs	r5, r0
 c00119c:	000c      	movs	r4, r1
 c00119e:	f7ff fc45 	bl	c000a2c <vPortEnterCritical>
 c0011a2:	6c29      	ldr	r1, [r5, #64]	; 0x40
 c0011a4:	6bea      	ldr	r2, [r5, #60]	; 0x3c
 c0011a6:	682b      	ldr	r3, [r5, #0]
 c0011a8:	0010      	movs	r0, r2
 c0011aa:	4348      	muls	r0, r1
 c0011ac:	1818      	adds	r0, r3, r0
 c0011ae:	60a8      	str	r0, [r5, #8]
 c0011b0:	2000      	movs	r0, #0
 c0011b2:	63a8      	str	r0, [r5, #56]	; 0x38
 c0011b4:	606b      	str	r3, [r5, #4]
 c0011b6:	1e52      	subs	r2, r2, #1
 c0011b8:	434a      	muls	r2, r1
 c0011ba:	1898      	adds	r0, r3, r2
 c0011bc:	60e8      	str	r0, [r5, #12]
 c0011be:	0028      	movs	r0, r5
 c0011c0:	3044      	adds	r0, #68	; 0x44
 c0011c2:	2100      	movs	r1, #0
 c0011c4:	43c9      	mvns	r1, r1
 c0011c6:	7001      	strb	r1, [r0, #0]
 c0011c8:	7041      	strb	r1, [r0, #1]
 c0011ca:	b944      	cbnz	r4, c0011de <xQueueGenericReset+0x46>
 c0011cc:	6928      	ldr	r0, [r5, #16]
 c0011ce:	b170      	cbz	r0, c0011ee <xQueueGenericReset+0x56>
 c0011d0:	0028      	movs	r0, r5
 c0011d2:	f000 f9da 	bl	c00158a <.text_28+0x2>
 c0011d6:	b150      	cbz	r0, c0011ee <xQueueGenericReset+0x56>
 c0011d8:	f7ff fc22 	bl	c000a20 <vPortYield>
 c0011dc:	e007      	b.n	c0011ee <xQueueGenericReset+0x56>
 c0011de:	0028      	movs	r0, r5
 c0011e0:	3010      	adds	r0, #16
 c0011e2:	f7ff fb90 	bl	c000906 <vListInitialise>
 c0011e6:	0028      	movs	r0, r5
 c0011e8:	3024      	adds	r0, #36	; 0x24
 c0011ea:	f7ff fb8c 	bl	c000906 <vListInitialise>
 c0011ee:	f7ff fc29 	bl	c000a44 <vPortExitCritical>
 c0011f2:	2001      	movs	r0, #1
 c0011f4:	bd32      	pop	{r1, r4, r5, pc}

0c0011f6 <xQueueGenericCreate>:
 c0011f6:	b5f8      	push	{r3, r4, r5, r6, r7, lr}
 c0011f8:	0004      	movs	r4, r0
 c0011fa:	000f      	movs	r7, r1
 c0011fc:	0016      	movs	r6, r2
 c0011fe:	b90f      	cbnz	r7, c001204 <xQueueGenericCreate+0xe>
 c001200:	2054      	movs	r0, #84	; 0x54
 c001202:	e001      	b.n	c001208 <xQueueGenericCreate+0x12>
 c001204:	4378      	muls	r0, r7
 c001206:	3054      	adds	r0, #84	; 0x54
 c001208:	f7fe ff10 	bl	c00002c <pvPortMalloc>
 c00120c:	0005      	movs	r5, r0
 c00120e:	d007      	beq.n	c001220 <xQueueGenericCreate+0x2a>
 c001210:	0033      	movs	r3, r6
 c001212:	9500      	str	r5, [sp, #0]
 c001214:	002a      	movs	r2, r5
 c001216:	3254      	adds	r2, #84	; 0x54
 c001218:	0039      	movs	r1, r7
 c00121a:	0020      	movs	r0, r4
 c00121c:	f000 f802 	bl	c001224 <prvInitialiseNewQueue>
 c001220:	0028      	movs	r0, r5
 c001222:	bdf2      	pop	{r1, r4, r5, r6, r7, pc}

0c001224 <prvInitialiseNewQueue>:
 c001224:	b538      	push	{r3, r4, r5, lr}
 c001226:	9c04      	ldr	r4, [sp, #16]
 c001228:	b901      	cbnz	r1, c00122c <prvInitialiseNewQueue+0x8>
 c00122a:	0022      	movs	r2, r4
 c00122c:	001d      	movs	r5, r3
 c00122e:	6022      	str	r2, [r4, #0]
 c001230:	63e0      	str	r0, [r4, #60]	; 0x3c
 c001232:	6421      	str	r1, [r4, #64]	; 0x40
 c001234:	2101      	movs	r1, #1
 c001236:	0020      	movs	r0, r4
 c001238:	f7ff ffae 	bl	c001198 <xQueueGenericReset>
 c00123c:	2050      	movs	r0, #80	; 0x50
 c00123e:	5425      	strb	r5, [r4, r0]
 c001240:	2000      	movs	r0, #0
 c001242:	64a0      	str	r0, [r4, #72]	; 0x48
 c001244:	bd31      	pop	{r0, r4, r5, pc}

0c001246 <xQueueGenericSend>:
 c001246:	b5f7      	push	{r0, r1, r2, r4, r5, r6, r7, lr}
 c001248:	b082      	sub	sp, #8
 c00124a:	2700      	movs	r7, #0
 c00124c:	2500      	movs	r5, #0
 c00124e:	0004      	movs	r4, r0
 c001250:	001e      	movs	r6, r3
 c001252:	e00b      	b.n	c00126c <xQueueGenericSend+0x26>
 c001254:	9904      	ldr	r1, [sp, #16]
 c001256:	0020      	movs	r0, r4
 c001258:	3010      	adds	r0, #16
 c00125a:	f7ff f97d 	bl	c000558 <vTaskPlaceOnEventList>
 c00125e:	f000 f96e 	bl	c00153e <.text_21>
 c001262:	f7ff f8b0 	bl	c0003c6 <xTaskResumeAll>
 c001266:	b908      	cbnz	r0, c00126c <xQueueGenericSend+0x26>
 c001268:	f7ff fbda 	bl	c000a20 <vPortYield>
 c00126c:	f7ff fbde 	bl	c000a2c <vPortEnterCritical>
 c001270:	f000 f8a3 	bl	c0013ba <.text_13>
 c001274:	d32d      	bcc.n	c0012d2 <xQueueGenericSend+0x8c>
 c001276:	2e02      	cmp	r6, #2
 c001278:	d02b      	beq.n	c0012d2 <xQueueGenericSend+0x8c>
 c00127a:	9804      	ldr	r0, [sp, #16]
 c00127c:	2800      	cmp	r0, #0
 c00127e:	d025      	beq.n	c0012cc <xQueueGenericSend+0x86>
 c001280:	b915      	cbnz	r5, c001288 <xQueueGenericSend+0x42>
 c001282:	f000 f952 	bl	c00152a <.text_18>
 c001286:	2501      	movs	r5, #1
 c001288:	f7ff fbdc 	bl	c000a44 <vPortExitCritical>
 c00128c:	f7ff f884 	bl	c000398 <vTaskSuspendAll>
 c001290:	f7ff fbcc 	bl	c000a2c <vPortEnterCritical>
 c001294:	f000 f955 	bl	c001542 <.text_22>
 c001298:	a904      	add	r1, sp, #16
 c00129a:	f000 f943 	bl	c001524 <.text_17+0x2>
 c00129e:	2800      	cmp	r0, #0
 c0012a0:	d12a      	bne.n	c0012f8 <xQueueGenericSend+0xb2>
 c0012a2:	0020      	movs	r0, r4
 c0012a4:	f000 f9fd 	bl	c0016a2 <prvIsQueueFull>
 c0012a8:	2800      	cmp	r0, #0
 c0012aa:	d1d3      	bne.n	c001254 <xQueueGenericSend+0xe>
 c0012ac:	f000 f947 	bl	c00153e <.text_21>
 c0012b0:	f7ff f889 	bl	c0003c6 <xTaskResumeAll>
 c0012b4:	e7da      	b.n	c00126c <xQueueGenericSend+0x26>
 c0012b6:	6a61      	ldr	r1, [r4, #36]	; 0x24
 c0012b8:	b109      	cbz	r1, c0012be <xQueueGenericSend+0x78>
 c0012ba:	f000 f961 	bl	c001580 <.text_26>
 c0012be:	b108      	cbz	r0, c0012c4 <xQueueGenericSend+0x7e>
 c0012c0:	f7ff fbae 	bl	c000a20 <vPortYield>
 c0012c4:	f7ff fbbe 	bl	c000a44 <vPortExitCritical>
 c0012c8:	2001      	movs	r0, #1
 c0012ca:	e01a      	b.n	c001302 <xQueueGenericSend+0xbc>
 c0012cc:	f7ff fbba 	bl	c000a44 <vPortExitCritical>
 c0012d0:	e016      	b.n	c001300 <xQueueGenericSend+0xba>
 c0012d2:	9903      	ldr	r1, [sp, #12]
 c0012d4:	6ba5      	ldr	r5, [r4, #56]	; 0x38
 c0012d6:	0032      	movs	r2, r6
 c0012d8:	0020      	movs	r0, r4
 c0012da:	f000 f95d 	bl	c001598 <prvCopyDataToQueue>
 c0012de:	0021      	movs	r1, r4
 c0012e0:	3144      	adds	r1, #68	; 0x44
 c0012e2:	6849      	ldr	r1, [r1, #4]
 c0012e4:	2900      	cmp	r1, #0
 c0012e6:	d0e6      	beq.n	c0012b6 <xQueueGenericSend+0x70>
 c0012e8:	2e02      	cmp	r6, #2
 c0012ea:	d101      	bne.n	c0012f0 <xQueueGenericSend+0xaa>
 c0012ec:	2d00      	cmp	r5, #0
 c0012ee:	d1e9      	bne.n	c0012c4 <xQueueGenericSend+0x7e>
 c0012f0:	0031      	movs	r1, r6
 c0012f2:	f000 f867 	bl	c0013c4 <.text_14+0x2>
 c0012f6:	e7e2      	b.n	c0012be <xQueueGenericSend+0x78>
 c0012f8:	f000 f921 	bl	c00153e <.text_21>
 c0012fc:	f7ff f863 	bl	c0003c6 <xTaskResumeAll>
 c001300:	2000      	movs	r0, #0
 c001302:	b005      	add	sp, #20
 c001304:	bdf0      	pop	{r4, r5, r6, r7, pc}

0c001306 <xQueueGenericSendFromISR>:
 c001306:	b5fe      	push	{r1, r2, r3, r4, r5, r6, r7, lr}
 c001308:	0004      	movs	r4, r0
 c00130a:	000d      	movs	r5, r1
 c00130c:	0017      	movs	r7, r2
 c00130e:	f010 fc03 	bl	c011b18 <ulSetInterruptMaskFromISR>
 c001312:	9000      	str	r0, [sp, #0]
 c001314:	f000 f851 	bl	c0013ba <.text_13>
 c001318:	d302      	bcc.n	c001320 <xQueueGenericSendFromISR+0x1a>
 c00131a:	9802      	ldr	r0, [sp, #8]
 c00131c:	2802      	cmp	r0, #2
 c00131e:	d11d      	bne.n	c00135c <xQueueGenericSendFromISR+0x56>
 c001320:	0029      	movs	r1, r5
 c001322:	2045      	movs	r0, #69	; 0x45
 c001324:	5626      	ldrsb	r6, [r4, r0]
 c001326:	9a02      	ldr	r2, [sp, #8]
 c001328:	0020      	movs	r0, r4
 c00132a:	f000 f935 	bl	c001598 <prvCopyDataToQueue>
 c00132e:	2501      	movs	r5, #1
 c001330:	2000      	movs	r0, #0
 c001332:	43c0      	mvns	r0, r0
 c001334:	4286      	cmp	r6, r0
 c001336:	d10d      	bne.n	c001354 <xQueueGenericSendFromISR+0x4e>
 c001338:	6ca0      	ldr	r0, [r4, #72]	; 0x48
 c00133a:	b118      	cbz	r0, c001344 <xQueueGenericSendFromISR+0x3e>
 c00133c:	9902      	ldr	r1, [sp, #8]
 c00133e:	f000 f841 	bl	c0013c4 <.text_14+0x2>
 c001342:	e003      	b.n	c00134c <xQueueGenericSendFromISR+0x46>
 c001344:	6a60      	ldr	r0, [r4, #36]	; 0x24
 c001346:	b150      	cbz	r0, c00135e <xQueueGenericSendFromISR+0x58>
 c001348:	f000 f91a 	bl	c001580 <.text_26>
 c00134c:	b138      	cbz	r0, c00135e <xQueueGenericSendFromISR+0x58>
 c00134e:	b137      	cbz	r7, c00135e <xQueueGenericSendFromISR+0x58>
 c001350:	603d      	str	r5, [r7, #0]
 c001352:	e004      	b.n	c00135e <xQueueGenericSendFromISR+0x58>
 c001354:	1c76      	adds	r6, r6, #1
 c001356:	2045      	movs	r0, #69	; 0x45
 c001358:	5426      	strb	r6, [r4, r0]
 c00135a:	e000      	b.n	c00135e <xQueueGenericSendFromISR+0x58>
 c00135c:	2500      	movs	r5, #0
 c00135e:	9800      	ldr	r0, [sp, #0]
 c001360:	f010 fbde 	bl	c011b20 <vClearInterruptMaskFromISR>
 c001364:	0028      	movs	r0, r5
 c001366:	bdfe      	pop	{r1, r2, r3, r4, r5, r6, r7, pc}

0c001368 <xQueueGiveFromISR>:
 c001368:	b5f8      	push	{r3, r4, r5, r6, r7, lr}
 c00136a:	0004      	movs	r4, r0
 c00136c:	000e      	movs	r6, r1
 c00136e:	f010 fbd3 	bl	c011b18 <ulSetInterruptMaskFromISR>
 c001372:	0007      	movs	r7, r0
 c001374:	f000 f821 	bl	c0013ba <.text_13>
 c001378:	d219      	bcs.n	c0013ae <xQueueGiveFromISR+0x46>
 c00137a:	2145      	movs	r1, #69	; 0x45
 c00137c:	5661      	ldrsb	r1, [r4, r1]
 c00137e:	1c40      	adds	r0, r0, #1
 c001380:	63a0      	str	r0, [r4, #56]	; 0x38
 c001382:	2501      	movs	r5, #1
 c001384:	2000      	movs	r0, #0
 c001386:	43c0      	mvns	r0, r0
 c001388:	4281      	cmp	r1, r0
 c00138a:	d10c      	bne.n	c0013a6 <xQueueGiveFromISR+0x3e>
 c00138c:	6ca0      	ldr	r0, [r4, #72]	; 0x48
 c00138e:	b110      	cbz	r0, c001396 <xQueueGiveFromISR+0x2e>
 c001390:	f000 f817 	bl	c0013c2 <.text_14>
 c001394:	e003      	b.n	c00139e <xQueueGiveFromISR+0x36>
 c001396:	6a60      	ldr	r0, [r4, #36]	; 0x24
 c001398:	b150      	cbz	r0, c0013b0 <xQueueGiveFromISR+0x48>
 c00139a:	f000 f8f1 	bl	c001580 <.text_26>
 c00139e:	b138      	cbz	r0, c0013b0 <xQueueGiveFromISR+0x48>
 c0013a0:	b136      	cbz	r6, c0013b0 <xQueueGiveFromISR+0x48>
 c0013a2:	6035      	str	r5, [r6, #0]
 c0013a4:	e004      	b.n	c0013b0 <xQueueGiveFromISR+0x48>
 c0013a6:	1c49      	adds	r1, r1, #1
 c0013a8:	2045      	movs	r0, #69	; 0x45
 c0013aa:	5421      	strb	r1, [r4, r0]
 c0013ac:	e000      	b.n	c0013b0 <xQueueGiveFromISR+0x48>
 c0013ae:	2500      	movs	r5, #0
 c0013b0:	0038      	movs	r0, r7
 c0013b2:	f010 fbb5 	bl	c011b20 <vClearInterruptMaskFromISR>
 c0013b6:	0028      	movs	r0, r5
 c0013b8:	bdf2      	pop	{r1, r4, r5, r6, r7, pc}

0c0013ba <.text_13>:
 c0013ba:	6ba0      	ldr	r0, [r4, #56]	; 0x38
 c0013bc:	6be1      	ldr	r1, [r4, #60]	; 0x3c
 c0013be:	4288      	cmp	r0, r1
 c0013c0:	4770      	bx	lr

0c0013c2 <.text_14>:
 c0013c2:	2100      	movs	r1, #0
 c0013c4:	0020      	movs	r0, r4
 c0013c6:	e199      	b.n	c0016fc <prvNotifyQueueSetContainer>

0c0013c8 <xQueueReceive>:
 c0013c8:	b5f7      	push	{r0, r1, r2, r4, r5, r6, r7, lr}
 c0013ca:	000f      	movs	r7, r1
 c0013cc:	2600      	movs	r6, #0
 c0013ce:	2500      	movs	r5, #0
 c0013d0:	0004      	movs	r4, r0
 c0013d2:	e003      	b.n	c0013dc <xQueueReceive+0x14>
 c0013d4:	f000 f8b3 	bl	c00153e <.text_21>
 c0013d8:	f7fe fff5 	bl	c0003c6 <xTaskResumeAll>
 c0013dc:	f7ff fb26 	bl	c000a2c <vPortEnterCritical>
 c0013e0:	6ba0      	ldr	r0, [r4, #56]	; 0x38
 c0013e2:	b920      	cbnz	r0, c0013ee <xQueueReceive+0x26>
 c0013e4:	9802      	ldr	r0, [sp, #8]
 c0013e6:	b948      	cbnz	r0, c0013fc <xQueueReceive+0x34>
 c0013e8:	f7ff fb2c 	bl	c000a44 <vPortExitCritical>
 c0013ec:	e03b      	b.n	c001466 <xQueueReceive+0x9e>
 c0013ee:	0005      	movs	r5, r0
 c0013f0:	0039      	movs	r1, r7
 c0013f2:	f000 f8c3 	bl	c00157c <.text_25+0x2>
 c0013f6:	1e6d      	subs	r5, r5, #1
 c0013f8:	63a5      	str	r5, [r4, #56]	; 0x38
 c0013fa:	e0b3      	b.n	c001564 <.text_23>
 c0013fc:	b915      	cbnz	r5, c001404 <xQueueReceive+0x3c>
 c0013fe:	f000 f894 	bl	c00152a <.text_18>
 c001402:	2501      	movs	r5, #1
 c001404:	f7ff fb1e 	bl	c000a44 <vPortExitCritical>
 c001408:	f7fe ffc6 	bl	c000398 <vTaskSuspendAll>
 c00140c:	f7ff fb0e 	bl	c000a2c <vPortEnterCritical>
 c001410:	2000      	movs	r0, #0
 c001412:	43c0      	mvns	r0, r0
 c001414:	2144      	movs	r1, #68	; 0x44
 c001416:	5661      	ldrsb	r1, [r4, r1]
 c001418:	4281      	cmp	r1, r0
 c00141a:	d101      	bne.n	c001420 <xQueueReceive+0x58>
 c00141c:	2244      	movs	r2, #68	; 0x44
 c00141e:	54a6      	strb	r6, [r4, r2]
 c001420:	0021      	movs	r1, r4
 c001422:	3144      	adds	r1, #68	; 0x44
 c001424:	2201      	movs	r2, #1
 c001426:	568a      	ldrsb	r2, [r1, r2]
 c001428:	4282      	cmp	r2, r0
 c00142a:	d100      	bne.n	c00142e <xQueueReceive+0x66>
 c00142c:	704e      	strb	r6, [r1, #1]
 c00142e:	f7ff fb09 	bl	c000a44 <vPortExitCritical>
 c001432:	f000 f876 	bl	c001522 <.text_17>
 c001436:	b970      	cbnz	r0, c001456 <xQueueReceive+0x8e>
 c001438:	f000 f87f 	bl	c00153a <.text_20>
 c00143c:	2800      	cmp	r0, #0
 c00143e:	d0c9      	beq.n	c0013d4 <xQueueReceive+0xc>
 c001440:	f000 f876 	bl	c001530 <.text_19>
 c001444:	f000 f87b 	bl	c00153e <.text_21>
 c001448:	f7fe ffbd 	bl	c0003c6 <xTaskResumeAll>
 c00144c:	2800      	cmp	r0, #0
 c00144e:	d1c5      	bne.n	c0013dc <xQueueReceive+0x14>
 c001450:	f7ff fae6 	bl	c000a20 <vPortYield>
 c001454:	e7c2      	b.n	c0013dc <xQueueReceive+0x14>
 c001456:	f000 f872 	bl	c00153e <.text_21>
 c00145a:	f7fe ffb4 	bl	c0003c6 <xTaskResumeAll>
 c00145e:	f000 f86c 	bl	c00153a <.text_20>
 c001462:	2800      	cmp	r0, #0
 c001464:	d0ba      	beq.n	c0013dc <xQueueReceive+0x14>
 c001466:	2000      	movs	r0, #0
 c001468:	bdfe      	pop	{r1, r2, r3, r4, r5, r6, r7, pc}

0c00146a <xQueueSemaphoreTake>:
 c00146a:	b5f2      	push	{r1, r4, r5, r6, r7, lr}
 c00146c:	b082      	sub	sp, #8
 c00146e:	2700      	movs	r7, #0
 c001470:	2600      	movs	r6, #0
 c001472:	2500      	movs	r5, #0
 c001474:	0004      	movs	r4, r0
 c001476:	e003      	b.n	c001480 <xQueueSemaphoreTake+0x16>
 c001478:	f000 f861 	bl	c00153e <.text_21>
 c00147c:	f7fe ffa3 	bl	c0003c6 <xTaskResumeAll>
 c001480:	f7ff fad4 	bl	c000a2c <vPortEnterCritical>
 c001484:	6ba0      	ldr	r0, [r4, #56]	; 0x38
 c001486:	b910      	cbnz	r0, c00148e <xQueueSemaphoreTake+0x24>
 c001488:	9802      	ldr	r0, [sp, #8]
 c00148a:	b940      	cbnz	r0, c00149e <xQueueSemaphoreTake+0x34>
 c00148c:	e045      	b.n	c00151a <xQueueSemaphoreTake+0xb0>
 c00148e:	1e40      	subs	r0, r0, #1
 c001490:	63a0      	str	r0, [r4, #56]	; 0x38
 c001492:	6820      	ldr	r0, [r4, #0]
 c001494:	b910      	cbnz	r0, c00149c <xQueueSemaphoreTake+0x32>
 c001496:	f7ff f9c7 	bl	c000828 <pvTaskIncrementMutexHeldCount>
 c00149a:	60a0      	str	r0, [r4, #8]
 c00149c:	e062      	b.n	c001564 <.text_23>
 c00149e:	b916      	cbnz	r6, c0014a6 <xQueueSemaphoreTake+0x3c>
 c0014a0:	f000 f843 	bl	c00152a <.text_18>
 c0014a4:	2601      	movs	r6, #1
 c0014a6:	f7ff facd 	bl	c000a44 <vPortExitCritical>
 c0014aa:	f7fe ff75 	bl	c000398 <vTaskSuspendAll>
 c0014ae:	f7ff fabd 	bl	c000a2c <vPortEnterCritical>
 c0014b2:	f000 f846 	bl	c001542 <.text_22>
 c0014b6:	f000 f834 	bl	c001522 <.text_17>
 c0014ba:	b9c0      	cbnz	r0, c0014ee <xQueueSemaphoreTake+0x84>
 c0014bc:	f000 f83d 	bl	c00153a <.text_20>
 c0014c0:	2800      	cmp	r0, #0
 c0014c2:	d0d9      	beq.n	c001478 <xQueueSemaphoreTake+0xe>
 c0014c4:	6820      	ldr	r0, [r4, #0]
 c0014c6:	b938      	cbnz	r0, c0014d8 <xQueueSemaphoreTake+0x6e>
 c0014c8:	f7ff fab0 	bl	c000a2c <vPortEnterCritical>
 c0014cc:	68a0      	ldr	r0, [r4, #8]
 c0014ce:	f7ff f925 	bl	c00071c <xTaskPriorityInherit>
 c0014d2:	0005      	movs	r5, r0
 c0014d4:	f7ff fab6 	bl	c000a44 <vPortExitCritical>
 c0014d8:	f000 f82a 	bl	c001530 <.text_19>
 c0014dc:	f000 f82f 	bl	c00153e <.text_21>
 c0014e0:	f7fe ff71 	bl	c0003c6 <xTaskResumeAll>
 c0014e4:	2800      	cmp	r0, #0
 c0014e6:	d1cb      	bne.n	c001480 <xQueueSemaphoreTake+0x16>
 c0014e8:	f7ff fa9a 	bl	c000a20 <vPortYield>
 c0014ec:	e7c8      	b.n	c001480 <xQueueSemaphoreTake+0x16>
 c0014ee:	f000 f826 	bl	c00153e <.text_21>
 c0014f2:	f7fe ff68 	bl	c0003c6 <xTaskResumeAll>
 c0014f6:	f000 f820 	bl	c00153a <.text_20>
 c0014fa:	2800      	cmp	r0, #0
 c0014fc:	d0c0      	beq.n	c001480 <xQueueSemaphoreTake+0x16>
 c0014fe:	b175      	cbz	r5, c00151e <xQueueSemaphoreTake+0xb4>
 c001500:	f7ff fa94 	bl	c000a2c <vPortEnterCritical>
 c001504:	6a60      	ldr	r0, [r4, #36]	; 0x24
 c001506:	b120      	cbz	r0, c001512 <xQueueSemaphoreTake+0xa8>
 c001508:	200b      	movs	r0, #11
 c00150a:	6b21      	ldr	r1, [r4, #48]	; 0x30
 c00150c:	6809      	ldr	r1, [r1, #0]
 c00150e:	1a41      	subs	r1, r0, r1
 c001510:	e000      	b.n	c001514 <xQueueSemaphoreTake+0xaa>
 c001512:	2100      	movs	r1, #0
 c001514:	68a0      	ldr	r0, [r4, #8]
 c001516:	f7ff f957 	bl	c0007c8 <vTaskPriorityDisinheritAfterTimeout>
 c00151a:	f7ff fa93 	bl	c000a44 <vPortExitCritical>
 c00151e:	2000      	movs	r0, #0
 c001520:	bdfe      	pop	{r1, r2, r3, r4, r5, r6, r7, pc}

0c001522 <.text_17>:
 c001522:	a902      	add	r1, sp, #8
 c001524:	4668      	mov	r0, sp
 c001526:	f7ff b867 	b.w	c0005f8 <xTaskCheckForTimeOut>

0c00152a <.text_18>:
 c00152a:	4668      	mov	r0, sp
 c00152c:	f7ff b85e 	b.w	c0005ec <vTaskInternalSetTimeOutState>

0c001530 <.text_19>:
 c001530:	9902      	ldr	r1, [sp, #8]
 c001532:	0020      	movs	r0, r4
 c001534:	3024      	adds	r0, #36	; 0x24
 c001536:	f7ff b80f 	b.w	c000558 <vTaskPlaceOnEventList>

0c00153a <.text_20>:
 c00153a:	0020      	movs	r0, r4
 c00153c:	e0a9      	b.n	c001692 <prvIsQueueEmpty>

0c00153e <.text_21>:
 c00153e:	0020      	movs	r0, r4
 c001540:	e072      	b.n	c001628 <prvUnlockQueue>

0c001542 <.text_22>:
 c001542:	2000      	movs	r0, #0
 c001544:	43c0      	mvns	r0, r0
 c001546:	2144      	movs	r1, #68	; 0x44
 c001548:	5661      	ldrsb	r1, [r4, r1]
 c00154a:	4281      	cmp	r1, r0
 c00154c:	d101      	bne.n	c001552 <.text_22+0x10>
 c00154e:	2244      	movs	r2, #68	; 0x44
 c001550:	54a7      	strb	r7, [r4, r2]
 c001552:	0021      	movs	r1, r4
 c001554:	3144      	adds	r1, #68	; 0x44
 c001556:	2201      	movs	r2, #1
 c001558:	568a      	ldrsb	r2, [r1, r2]
 c00155a:	4282      	cmp	r2, r0
 c00155c:	d100      	bne.n	c001560 <.text_22+0x1e>
 c00155e:	704f      	strb	r7, [r1, #1]
 c001560:	f7ff ba70 	b.w	c000a44 <vPortExitCritical>

0c001564 <.text_23>:
 c001564:	6920      	ldr	r0, [r4, #16]
 c001566:	b120      	cbz	r0, c001572 <.text_23+0xe>
 c001568:	f000 f80e 	bl	c001588 <.text_28>
 c00156c:	b108      	cbz	r0, c001572 <.text_23+0xe>
 c00156e:	f7ff fa57 	bl	c000a20 <vPortYield>
 c001572:	f7ff fa67 	bl	c000a44 <vPortExitCritical>
 c001576:	2001      	movs	r0, #1
 c001578:	bdfe      	pop	{r1, r2, r3, r4, r5, r6, r7, pc}

0c00157a <.text_25>:
 c00157a:	68e5      	ldr	r5, [r4, #12]
 c00157c:	0020      	movs	r0, r4
 c00157e:	e040      	b.n	c001602 <prvCopyDataFromQueue>

0c001580 <.text_26>:
 c001580:	0020      	movs	r0, r4
 c001582:	3024      	adds	r0, #36	; 0x24
 c001584:	f7ff b80a 	b.w	c00059c <xTaskRemoveFromEventList>

0c001588 <.text_28>:
 c001588:	0020      	movs	r0, r4
 c00158a:	3010      	adds	r0, #16
 c00158c:	f7ff b806 	b.w	c00059c <xTaskRemoveFromEventList>

0c001590 <.text_32>:
 c001590:	f7ff fa58 	bl	c000a44 <vPortExitCritical>
 c001594:	0020      	movs	r0, r4
 c001596:	bd10      	pop	{r4, pc}

0c001598 <prvCopyDataToQueue>:
 c001598:	b5f8      	push	{r3, r4, r5, r6, r7, lr}
 c00159a:	0004      	movs	r4, r0
 c00159c:	0010      	movs	r0, r2
 c00159e:	2600      	movs	r6, #0
 c0015a0:	2700      	movs	r7, #0
 c0015a2:	6ba5      	ldr	r5, [r4, #56]	; 0x38
 c0015a4:	6c22      	ldr	r2, [r4, #64]	; 0x40
 c0015a6:	b93a      	cbnz	r2, c0015b8 <prvCopyDataToQueue+0x20>
 c0015a8:	6820      	ldr	r0, [r4, #0]
 c0015aa:	bb30      	cbnz	r0, c0015fa <prvCopyDataToQueue+0x62>
 c0015ac:	68a0      	ldr	r0, [r4, #8]
 c0015ae:	f7ff f8ec 	bl	c00078a <xTaskPriorityDisinherit>
 c0015b2:	0007      	movs	r7, r0
 c0015b4:	60a6      	str	r6, [r4, #8]
 c0015b6:	e020      	b.n	c0015fa <prvCopyDataToQueue+0x62>
 c0015b8:	0006      	movs	r6, r0
 c0015ba:	d10c      	bne.n	c0015d6 <prvCopyDataToQueue+0x3e>
 c0015bc:	6860      	ldr	r0, [r4, #4]
 c0015be:	f000 fd47 	bl	c002050 <__aeabi_memcpy>
 c0015c2:	6860      	ldr	r0, [r4, #4]
 c0015c4:	6c21      	ldr	r1, [r4, #64]	; 0x40
 c0015c6:	1840      	adds	r0, r0, r1
 c0015c8:	6060      	str	r0, [r4, #4]
 c0015ca:	68a1      	ldr	r1, [r4, #8]
 c0015cc:	4288      	cmp	r0, r1
 c0015ce:	d314      	bcc.n	c0015fa <prvCopyDataToQueue+0x62>
 c0015d0:	6820      	ldr	r0, [r4, #0]
 c0015d2:	6060      	str	r0, [r4, #4]
 c0015d4:	e011      	b.n	c0015fa <prvCopyDataToQueue+0x62>
 c0015d6:	68e0      	ldr	r0, [r4, #12]
 c0015d8:	f000 fd3a 	bl	c002050 <__aeabi_memcpy>
 c0015dc:	6c21      	ldr	r1, [r4, #64]	; 0x40
 c0015de:	4248      	negs	r0, r1
 c0015e0:	68e1      	ldr	r1, [r4, #12]
 c0015e2:	1809      	adds	r1, r1, r0
 c0015e4:	60e1      	str	r1, [r4, #12]
 c0015e6:	6822      	ldr	r2, [r4, #0]
 c0015e8:	4291      	cmp	r1, r2
 c0015ea:	d202      	bcs.n	c0015f2 <prvCopyDataToQueue+0x5a>
 c0015ec:	68a1      	ldr	r1, [r4, #8]
 c0015ee:	1808      	adds	r0, r1, r0
 c0015f0:	60e0      	str	r0, [r4, #12]
 c0015f2:	2e02      	cmp	r6, #2
 c0015f4:	d101      	bne.n	c0015fa <prvCopyDataToQueue+0x62>
 c0015f6:	b105      	cbz	r5, c0015fa <prvCopyDataToQueue+0x62>
 c0015f8:	1e6d      	subs	r5, r5, #1
 c0015fa:	1c6d      	adds	r5, r5, #1
 c0015fc:	63a5      	str	r5, [r4, #56]	; 0x38
 c0015fe:	0038      	movs	r0, r7
 c001600:	bdf2      	pop	{r1, r4, r5, r6, r7, pc}

0c001602 <prvCopyDataFromQueue>:
 c001602:	b418      	push	{r3, r4}
 c001604:	000b      	movs	r3, r1
 c001606:	6c02      	ldr	r2, [r0, #64]	; 0x40
 c001608:	b162      	cbz	r2, c001624 <prvCopyDataFromQueue+0x22>
 c00160a:	68c1      	ldr	r1, [r0, #12]
 c00160c:	1889      	adds	r1, r1, r2
 c00160e:	60c1      	str	r1, [r0, #12]
 c001610:	6884      	ldr	r4, [r0, #8]
 c001612:	42a1      	cmp	r1, r4
 c001614:	d301      	bcc.n	c00161a <prvCopyDataFromQueue+0x18>
 c001616:	6801      	ldr	r1, [r0, #0]
 c001618:	60c1      	str	r1, [r0, #12]
 c00161a:	68c1      	ldr	r1, [r0, #12]
 c00161c:	0018      	movs	r0, r3
 c00161e:	bc18      	pop	{r3, r4}
 c001620:	f000 bd16 	b.w	c002050 <__aeabi_memcpy>
 c001624:	bc11      	pop	{r0, r4}
 c001626:	4770      	bx	lr

0c001628 <prvUnlockQueue>:
 c001628:	b5f8      	push	{r3, r4, r5, r6, r7, lr}
 c00162a:	f000 f82f 	bl	c00168c <.text_41>
 c00162e:	0027      	movs	r7, r4
 c001630:	3744      	adds	r7, #68	; 0x44
 c001632:	2001      	movs	r0, #1
 c001634:	563d      	ldrsb	r5, [r7, r0]
 c001636:	e007      	b.n	c001648 <prvUnlockQueue+0x20>
 c001638:	6a60      	ldr	r0, [r4, #36]	; 0x24
 c00163a:	b1b8      	cbz	r0, c00166c <prvUnlockQueue+0x44>
 c00163c:	f7ff ffa0 	bl	c001580 <.text_26>
 c001640:	b108      	cbz	r0, c001646 <prvUnlockQueue+0x1e>
 c001642:	f7ff f806 	bl	c000652 <vTaskMissedYield>
 c001646:	1e6d      	subs	r5, r5, #1
 c001648:	b268      	sxtb	r0, r5
 c00164a:	2801      	cmp	r0, #1
 c00164c:	db0e      	blt.n	c00166c <prvUnlockQueue+0x44>
 c00164e:	6878      	ldr	r0, [r7, #4]
 c001650:	2800      	cmp	r0, #0
 c001652:	d0f1      	beq.n	c001638 <prvUnlockQueue+0x10>
 c001654:	f7ff feb5 	bl	c0013c2 <.text_14>
 c001658:	e7f2      	b.n	c001640 <prvUnlockQueue+0x18>
 c00165a:	6920      	ldr	r0, [r4, #16]
 c00165c:	b190      	cbz	r0, c001684 <prvUnlockQueue+0x5c>
 c00165e:	f7ff ff93 	bl	c001588 <.text_28>
 c001662:	b108      	cbz	r0, c001668 <prvUnlockQueue+0x40>
 c001664:	f7fe fff5 	bl	c000652 <vTaskMissedYield>
 c001668:	1e76      	subs	r6, r6, #1
 c00166a:	e008      	b.n	c00167e <prvUnlockQueue+0x56>
 c00166c:	2000      	movs	r0, #0
 c00166e:	43c5      	mvns	r5, r0
 c001670:	707d      	strb	r5, [r7, #1]
 c001672:	f7ff f9e7 	bl	c000a44 <vPortExitCritical>
 c001676:	f7ff f9d9 	bl	c000a2c <vPortEnterCritical>
 c00167a:	2044      	movs	r0, #68	; 0x44
 c00167c:	5626      	ldrsb	r6, [r4, r0]
 c00167e:	b270      	sxtb	r0, r6
 c001680:	2801      	cmp	r0, #1
 c001682:	daea      	bge.n	c00165a <prvUnlockQueue+0x32>
 c001684:	703d      	strb	r5, [r7, #0]
 c001686:	f7ff f9dd 	bl	c000a44 <vPortExitCritical>
 c00168a:	bdf1      	pop	{r0, r4, r5, r6, r7, pc}

0c00168c <.text_41>:
 c00168c:	0004      	movs	r4, r0
 c00168e:	f7ff b9cd 	b.w	c000a2c <vPortEnterCritical>

0c001692 <prvIsQueueEmpty>:
 c001692:	b510      	push	{r4, lr}
 c001694:	f7ff fffa 	bl	c00168c <.text_41>
 c001698:	6ba0      	ldr	r0, [r4, #56]	; 0x38
 c00169a:	1e44      	subs	r4, r0, #1
 c00169c:	41a4      	sbcs	r4, r4
 c00169e:	0fe4      	lsrs	r4, r4, #31
 c0016a0:	e776      	b.n	c001590 <.text_32>

0c0016a2 <prvIsQueueFull>:
 c0016a2:	b510      	push	{r4, lr}
 c0016a4:	f7ff fff2 	bl	c00168c <.text_41>
 c0016a8:	f7ff fe87 	bl	c0013ba <.text_13>
 c0016ac:	d101      	bne.n	c0016b2 <prvIsQueueFull+0x10>
 c0016ae:	2401      	movs	r4, #1
 c0016b0:	e000      	b.n	c0016b4 <prvIsQueueFull+0x12>
 c0016b2:	2400      	movs	r4, #0
 c0016b4:	e76c      	b.n	c001590 <.text_32>

0c0016b6 <vQueueWaitForMessageRestricted>:
 c0016b6:	b570      	push	{r4, r5, r6, lr}
 c0016b8:	0004      	movs	r4, r0
 c0016ba:	000d      	movs	r5, r1
 c0016bc:	0016      	movs	r6, r2
 c0016be:	f7ff f9b5 	bl	c000a2c <vPortEnterCritical>
 c0016c2:	2000      	movs	r0, #0
 c0016c4:	2100      	movs	r1, #0
 c0016c6:	43c9      	mvns	r1, r1
 c0016c8:	2244      	movs	r2, #68	; 0x44
 c0016ca:	56a2      	ldrsb	r2, [r4, r2]
 c0016cc:	428a      	cmp	r2, r1
 c0016ce:	d101      	bne.n	c0016d4 <vQueueWaitForMessageRestricted+0x1e>
 c0016d0:	2344      	movs	r3, #68	; 0x44
 c0016d2:	54e0      	strb	r0, [r4, r3]
 c0016d4:	2245      	movs	r2, #69	; 0x45
 c0016d6:	56a2      	ldrsb	r2, [r4, r2]
 c0016d8:	428a      	cmp	r2, r1
 c0016da:	d101      	bne.n	c0016e0 <vQueueWaitForMessageRestricted+0x2a>
 c0016dc:	2145      	movs	r1, #69	; 0x45
 c0016de:	5460      	strb	r0, [r4, r1]
 c0016e0:	f7ff f9b0 	bl	c000a44 <vPortExitCritical>
 c0016e4:	6ba0      	ldr	r0, [r4, #56]	; 0x38
 c0016e6:	b928      	cbnz	r0, c0016f4 <vQueueWaitForMessageRestricted+0x3e>
 c0016e8:	0032      	movs	r2, r6
 c0016ea:	0029      	movs	r1, r5
 c0016ec:	0020      	movs	r0, r4
 c0016ee:	3024      	adds	r0, #36	; 0x24
 c0016f0:	f7fe ff44 	bl	c00057c <vTaskPlaceOnEventListRestricted>
 c0016f4:	0020      	movs	r0, r4
 c0016f6:	f7ff ff97 	bl	c001628 <prvUnlockQueue>
 c0016fa:	bd70      	pop	{r4, r5, r6, pc}

0c0016fc <prvNotifyQueueSetContainer>:
 c0016fc:	b571      	push	{r0, r4, r5, r6, lr}
 c0016fe:	b081      	sub	sp, #4
 c001700:	6c84      	ldr	r4, [r0, #72]	; 0x48
 c001702:	2600      	movs	r6, #0
 c001704:	6ba0      	ldr	r0, [r4, #56]	; 0x38
 c001706:	6be2      	ldr	r2, [r4, #60]	; 0x3c
 c001708:	4290      	cmp	r0, r2
 c00170a:	d215      	bcs.n	c001738 <prvNotifyQueueSetContainer+0x3c>
 c00170c:	2045      	movs	r0, #69	; 0x45
 c00170e:	5625      	ldrsb	r5, [r4, r0]
 c001710:	000a      	movs	r2, r1
 c001712:	a901      	add	r1, sp, #4
 c001714:	0020      	movs	r0, r4
 c001716:	f7ff ff3f 	bl	c001598 <prvCopyDataToQueue>
 c00171a:	0006      	movs	r6, r0
 c00171c:	2000      	movs	r0, #0
 c00171e:	43c0      	mvns	r0, r0
 c001720:	4285      	cmp	r5, r0
 c001722:	d106      	bne.n	c001732 <prvNotifyQueueSetContainer+0x36>
 c001724:	6a60      	ldr	r0, [r4, #36]	; 0x24
 c001726:	b138      	cbz	r0, c001738 <prvNotifyQueueSetContainer+0x3c>
 c001728:	f7ff ff2a 	bl	c001580 <.text_26>
 c00172c:	b120      	cbz	r0, c001738 <prvNotifyQueueSetContainer+0x3c>
 c00172e:	2601      	movs	r6, #1
 c001730:	e002      	b.n	c001738 <prvNotifyQueueSetContainer+0x3c>
 c001732:	1c6d      	adds	r5, r5, #1
 c001734:	2045      	movs	r0, #69	; 0x45
 c001736:	5425      	strb	r5, [r4, r0]
 c001738:	0030      	movs	r0, r6
 c00173a:	bd76      	pop	{r1, r2, r4, r5, r6, pc}

0c00173c <?Veneer 30 (3) for SOCPS_SetWakeEvent>:
 c00173c:	b408      	push	{r3}
 c00173e:	4b02      	ldr	r3, [pc, #8]	; (c001748 <?Veneer 30 (3) for SOCPS_SetWakeEvent+0xc>)
 c001740:	469c      	mov	ip, r3
 c001742:	bc08      	pop	{r3}
 c001744:	4760      	bx	ip
 c001746:	46c0      	nop			; (mov r8, r8)
 c001748:	00083b9d 	.word	0x00083b9d

0c00174c <?Veneer 31 (3) for SOCPS_ClearWakePin>:
 c00174c:	b408      	push	{r3}
 c00174e:	4b02      	ldr	r3, [pc, #8]	; (c001758 <?Veneer 31 (3) for SOCPS_ClearWakePin+0xc>)
 c001750:	469c      	mov	ip, r3
 c001752:	bc08      	pop	{r3}
 c001754:	4760      	bx	ip
 c001756:	46c0      	nop			; (mov r8, r8)
 c001758:	00083bd1 	.word	0x00083bd1

0c00175c <?Veneer 32 (3) for SOCPS_ClearWakeEvent>:
 c00175c:	b408      	push	{r3}
 c00175e:	4b02      	ldr	r3, [pc, #8]	; (c001768 <?Veneer 32 (3) for SOCPS_ClearWakeEvent+0xc>)
 c001760:	469c      	mov	ip, r3
 c001762:	bc08      	pop	{r3}
 c001764:	4760      	bx	ip
 c001766:	46c0      	nop			; (mov r8, r8)
 c001768:	00083be3 	.word	0x00083be3

0c00176c <?Veneer 40 (3) for irq_register>:
 c00176c:	b408      	push	{r3}
 c00176e:	4b02      	ldr	r3, [pc, #8]	; (c001778 <?Veneer 40 (3) for irq_register+0xc>)
 c001770:	469c      	mov	ip, r3
 c001772:	bc08      	pop	{r3}
 c001774:	4760      	bx	ip
 c001776:	46c0      	nop			; (mov r8, r8)
 c001778:	00005699 	.word	0x00005699

0c00177c <?Veneer 41 (3) for irq_enable>:
 c00177c:	b408      	push	{r3}
 c00177e:	4b02      	ldr	r3, [pc, #8]	; (c001788 <?Veneer 41 (3) for irq_enable+0xc>)
 c001780:	469c      	mov	ip, r3
 c001782:	bc08      	pop	{r3}
 c001784:	4760      	bx	ip
 c001786:	46c0      	nop			; (mov r8, r8)
 c001788:	00005559 	.word	0x00005559

0c00178c <?Veneer 81 (3) for PAD_PullCtrl>:
 c00178c:	b408      	push	{r3}
 c00178e:	4b02      	ldr	r3, [pc, #8]	; (c001798 <?Veneer 81 (3) for PAD_PullCtrl+0xc>)
 c001790:	469c      	mov	ip, r3
 c001792:	bc08      	pop	{r3}
 c001794:	4760      	bx	ip
 c001796:	46c0      	nop			; (mov r8, r8)
 c001798:	00003685 	.word	0x00003685

0c00179c <?Veneer 89 (3) for SOCPS_SNOOZE_Config>:
 c00179c:	b408      	push	{r3}
 c00179e:	4b02      	ldr	r3, [pc, #8]	; (c0017a8 <?Veneer 89 (3) for SOCPS_SNOOZE_Config+0xc>)
 c0017a0:	469c      	mov	ip, r3
 c0017a2:	bc08      	pop	{r3}
 c0017a4:	4760      	bx	ip
 c0017a6:	46c0      	nop			; (mov r8, r8)
 c0017a8:	000835a7 	.word	0x000835a7

0c0017ac <?Veneer 91 (3) for Pinmux_Config>:
 c0017ac:	b408      	push	{r3}
 c0017ae:	4b02      	ldr	r3, [pc, #8]	; (c0017b8 <?Veneer 91 (3) for Pinmux_Config+0xc>)
 c0017b0:	469c      	mov	ip, r3
 c0017b2:	bc08      	pop	{r3}
 c0017b4:	4760      	bx	ip
 c0017b6:	46c0      	nop			; (mov r8, r8)
 c0017b8:	000036dd 	.word	0x000036dd

0c0017bc <?Veneer 92 (3) for SOCPS_SetWakepin>:
 c0017bc:	b408      	push	{r3}
 c0017be:	4b02      	ldr	r3, [pc, #8]	; (c0017c8 <?Veneer 92 (3) for SOCPS_SetWakepin+0xc>)
 c0017c0:	469c      	mov	ip, r3
 c0017c2:	bc08      	pop	{r3}
 c0017c4:	4760      	bx	ip
 c0017c6:	46c0      	nop			; (mov r8, r8)
 c0017c8:	0008364d 	.word	0x0008364d

0c0017cc <SOCPS_vWFSSVCHandler>:
 c0017cc:	48be      	ldr	r0, [pc, #760]	; (c001ac8 <.text_99>)
 c0017ce:	6801      	ldr	r1, [r0, #0]
 c0017d0:	4608      	mov	r0, r1
 c0017d2:	c8f0      	ldmia	r0!, {r4, r5, r6, r7}
 c0017d4:	46a0      	mov	r8, r4
 c0017d6:	46a9      	mov	r9, r5
 c0017d8:	46b2      	mov	sl, r6
 c0017da:	46bb      	mov	fp, r7
 c0017dc:	c8f0      	ldmia	r0!, {r4, r5, r6, r7}
 c0017de:	f380 8809 	msr	PSP, r0
 c0017e2:	4671      	mov	r1, lr
 c0017e4:	200d      	movs	r0, #13
 c0017e6:	4301      	orrs	r1, r0
 c0017e8:	4708      	bx	r1
 c0017ea:	4770      	bx	lr

0c0017ec <SOCPS_NVICBackup>:
 c0017ec:	b430      	push	{r4, r5}
 c0017ee:	2100      	movs	r1, #0
 c0017f0:	484e      	ldr	r0, [pc, #312]	; (c00192c <.text_92>)
 c0017f2:	4b4f      	ldr	r3, [pc, #316]	; (c001930 <.text_93>)
 c0017f4:	681a      	ldr	r2, [r3, #0]
 c0017f6:	67c2      	str	r2, [r0, #124]	; 0x7c
 c0017f8:	685a      	ldr	r2, [r3, #4]
 c0017fa:	2480      	movs	r4, #128	; 0x80
 c0017fc:	5102      	str	r2, [r0, r4]
 c0017fe:	0002      	movs	r2, r0
 c001800:	3284      	adds	r2, #132	; 0x84
 c001802:	689b      	ldr	r3, [r3, #8]
 c001804:	6013      	str	r3, [r2, #0]
 c001806:	4b4b      	ldr	r3, [pc, #300]	; (c001934 <.text_94>)
 c001808:	681c      	ldr	r4, [r3, #0]
 c00180a:	6644      	str	r4, [r0, #100]	; 0x64
 c00180c:	685b      	ldr	r3, [r3, #4]
 c00180e:	6683      	str	r3, [r0, #104]	; 0x68
 c001810:	4b49      	ldr	r3, [pc, #292]	; (c001938 <.text_95>)
 c001812:	681c      	ldr	r4, [r3, #0]
 c001814:	66c4      	str	r4, [r0, #108]	; 0x6c
 c001816:	685b      	ldr	r3, [r3, #4]
 c001818:	6703      	str	r3, [r0, #112]	; 0x70
 c00181a:	25b0      	movs	r5, #176	; 0xb0
 c00181c:	4b47      	ldr	r3, [pc, #284]	; (c00193c <.text_96>)
 c00181e:	008c      	lsls	r4, r1, #2
 c001820:	591b      	ldr	r3, [r3, r4]
 c001822:	1844      	adds	r4, r0, r1
 c001824:	5563      	strb	r3, [r4, r5]
 c001826:	1c49      	adds	r1, r1, #1
 c001828:	2920      	cmp	r1, #32
 c00182a:	dbf7      	blt.n	c00181c <SOCPS_NVICBackup+0x30>
 c00182c:	4944      	ldr	r1, [pc, #272]	; (c001940 <.text_97>)
 c00182e:	680b      	ldr	r3, [r1, #0]
 c001830:	6743      	str	r3, [r0, #116]	; 0x74
 c001832:	6849      	ldr	r1, [r1, #4]
 c001834:	6781      	str	r1, [r0, #120]	; 0x78
 c001836:	48a5      	ldr	r0, [pc, #660]	; (c001acc <.text_100>)
 c001838:	6800      	ldr	r0, [r0, #0]
 c00183a:	6090      	str	r0, [r2, #8]
 c00183c:	bc30      	pop	{r4, r5}
 c00183e:	4770      	bx	lr

0c001840 <SOCPS_NVICReFill>:
 c001840:	b430      	push	{r4, r5}
 c001842:	2100      	movs	r1, #0
 c001844:	4b3a      	ldr	r3, [pc, #232]	; (c001930 <.text_93>)
 c001846:	4839      	ldr	r0, [pc, #228]	; (c00192c <.text_92>)
 c001848:	6fc2      	ldr	r2, [r0, #124]	; 0x7c
 c00184a:	601a      	str	r2, [r3, #0]
 c00184c:	2280      	movs	r2, #128	; 0x80
 c00184e:	5882      	ldr	r2, [r0, r2]
 c001850:	605a      	str	r2, [r3, #4]
 c001852:	0002      	movs	r2, r0
 c001854:	3284      	adds	r2, #132	; 0x84
 c001856:	6814      	ldr	r4, [r2, #0]
 c001858:	609c      	str	r4, [r3, #8]
 c00185a:	4b39      	ldr	r3, [pc, #228]	; (c001940 <.text_97>)
 c00185c:	6f44      	ldr	r4, [r0, #116]	; 0x74
 c00185e:	601c      	str	r4, [r3, #0]
 c001860:	6f84      	ldr	r4, [r0, #120]	; 0x78
 c001862:	605c      	str	r4, [r3, #4]
 c001864:	4b34      	ldr	r3, [pc, #208]	; (c001938 <.text_95>)
 c001866:	6ec4      	ldr	r4, [r0, #108]	; 0x6c
 c001868:	601c      	str	r4, [r3, #0]
 c00186a:	6f04      	ldr	r4, [r0, #112]	; 0x70
 c00186c:	605c      	str	r4, [r3, #4]
 c00186e:	1843      	adds	r3, r0, r1
 c001870:	24b0      	movs	r4, #176	; 0xb0
 c001872:	5d1b      	ldrb	r3, [r3, r4]
 c001874:	4c31      	ldr	r4, [pc, #196]	; (c00193c <.text_96>)
 c001876:	008d      	lsls	r5, r1, #2
 c001878:	5163      	str	r3, [r4, r5]
 c00187a:	1c49      	adds	r1, r1, #1
 c00187c:	2920      	cmp	r1, #32
 c00187e:	dbf6      	blt.n	c00186e <SOCPS_NVICReFill+0x2e>
 c001880:	492c      	ldr	r1, [pc, #176]	; (c001934 <.text_94>)
 c001882:	6e43      	ldr	r3, [r0, #100]	; 0x64
 c001884:	600b      	str	r3, [r1, #0]
 c001886:	6e80      	ldr	r0, [r0, #104]	; 0x68
 c001888:	6048      	str	r0, [r1, #4]
 c00188a:	6890      	ldr	r0, [r2, #8]
 c00188c:	498f      	ldr	r1, [pc, #572]	; (c001acc <.text_100>)
 c00188e:	6008      	str	r0, [r1, #0]
 c001890:	bc30      	pop	{r4, r5}
 c001892:	4770      	bx	lr

0c001894 <SOCPS_MPUBackup>:
 c001894:	b410      	push	{r4}
 c001896:	2200      	movs	r2, #0
 c001898:	4824      	ldr	r0, [pc, #144]	; (c00192c <.text_92>)
 c00189a:	0003      	movs	r3, r0
 c00189c:	33d0      	adds	r3, #208	; 0xd0
 c00189e:	49af      	ldr	r1, [pc, #700]	; (c001b5c <.text_102>)
 c0018a0:	680c      	ldr	r4, [r1, #0]
 c0018a2:	601c      	str	r4, [r3, #0]
 c0018a4:	6acc      	ldr	r4, [r1, #44]	; 0x2c
 c0018a6:	605c      	str	r4, [r3, #4]
 c0018a8:	6b0c      	ldr	r4, [r1, #48]	; 0x30
 c0018aa:	609c      	str	r4, [r3, #8]
 c0018ac:	604a      	str	r2, [r1, #4]
 c0018ae:	0093      	lsls	r3, r2, #2
 c0018b0:	18c3      	adds	r3, r0, r3
 c0018b2:	33dc      	adds	r3, #220	; 0xdc
 c0018b4:	688c      	ldr	r4, [r1, #8]
 c0018b6:	601c      	str	r4, [r3, #0]
 c0018b8:	68cc      	ldr	r4, [r1, #12]
 c0018ba:	611c      	str	r4, [r3, #16]
 c0018bc:	1c52      	adds	r2, r2, #1
 c0018be:	2a04      	cmp	r2, #4
 c0018c0:	dbf4      	blt.n	c0018ac <SOCPS_MPUBackup+0x18>
 c0018c2:	bc10      	pop	{r4}
 c0018c4:	4770      	bx	lr

0c0018c6 <SOCPS_MPUReFill>:
 c0018c6:	b430      	push	{r4, r5}
 c0018c8:	2300      	movs	r3, #0
 c0018ca:	48a4      	ldr	r0, [pc, #656]	; (c001b5c <.text_102>)
 c0018cc:	6003      	str	r3, [r0, #0]
 c0018ce:	4917      	ldr	r1, [pc, #92]	; (c00192c <.text_92>)
 c0018d0:	000a      	movs	r2, r1
 c0018d2:	32d0      	adds	r2, #208	; 0xd0
 c0018d4:	6854      	ldr	r4, [r2, #4]
 c0018d6:	62c4      	str	r4, [r0, #44]	; 0x2c
 c0018d8:	6894      	ldr	r4, [r2, #8]
 c0018da:	6304      	str	r4, [r0, #48]	; 0x30
 c0018dc:	6043      	str	r3, [r0, #4]
 c0018de:	009c      	lsls	r4, r3, #2
 c0018e0:	190c      	adds	r4, r1, r4
 c0018e2:	34dc      	adds	r4, #220	; 0xdc
 c0018e4:	6825      	ldr	r5, [r4, #0]
 c0018e6:	6085      	str	r5, [r0, #8]
 c0018e8:	6924      	ldr	r4, [r4, #16]
 c0018ea:	60c4      	str	r4, [r0, #12]
 c0018ec:	1c5b      	adds	r3, r3, #1
 c0018ee:	2b04      	cmp	r3, #4
 c0018f0:	dbf4      	blt.n	c0018dc <SOCPS_MPUReFill+0x16>
 c0018f2:	6811      	ldr	r1, [r2, #0]
 c0018f4:	6001      	str	r1, [r0, #0]
 c0018f6:	bc30      	pop	{r4, r5}
 c0018f8:	4770      	bx	lr

0c0018fa <SOCPS_InitSYSIRQ>:
 c0018fa:	b580      	push	{r7, lr}
 c0018fc:	489d      	ldr	r0, [pc, #628]	; (c001b74 <.text_105>)
 c0018fe:	499e      	ldr	r1, [pc, #632]	; (c001b78 <.text_106>)
 c001900:	6048      	str	r0, [r1, #4]
 c001902:	489e      	ldr	r0, [pc, #632]	; (c001b7c <.text_107>)
 c001904:	2100      	movs	r1, #0
 c001906:	60c1      	str	r1, [r0, #12]
 c001908:	6800      	ldr	r0, [r0, #0]
 c00190a:	b908      	cbnz	r0, c001910 <SOCPS_InitSYSIRQ+0x16>
 c00190c:	f7ff ff26 	bl	c00175c <?Veneer 32 (3) for SOCPS_ClearWakeEvent>
 c001910:	2101      	movs	r1, #1
 c001912:	2003      	movs	r0, #3
 c001914:	f7ff ff42 	bl	c00179c <?Veneer 89 (3) for SOCPS_SNOOZE_Config>
 c001918:	2300      	movs	r3, #0
 c00191a:	2200      	movs	r2, #0
 c00191c:	2100      	movs	r1, #0
 c00191e:	4898      	ldr	r0, [pc, #608]	; (c001b80 <.text_108>)
 c001920:	f7ff ff24 	bl	c00176c <?Veneer 40 (3) for irq_register>
 c001924:	2000      	movs	r0, #0
 c001926:	f7ff ff29 	bl	c00177c <?Veneer 41 (3) for irq_enable>
 c00192a:	bd01      	pop	{r0, pc}

0c00192c <.text_92>:
 c00192c:	00089b94 	.word	0x00089b94

0c001930 <.text_93>:
 c001930:	e000e010 	.word	0xe000e010

0c001934 <.text_94>:
 c001934:	e000e100 	.word	0xe000e100

0c001938 <.text_95>:
 c001938:	e000e180 	.word	0xe000e180

0c00193c <.text_96>:
 c00193c:	e000e400 	.word	0xe000e400

0c001940 <.text_97>:
 c001940:	e000e200 	.word	0xe000e200

0c001944 <SOCPS_SleepInit>:
 c001944:	b5f0      	push	{r4, r5, r6, r7, lr}
 c001946:	b081      	sub	sp, #4
 c001948:	4c8e      	ldr	r4, [pc, #568]	; (c001b84 <.text_109>)
 c00194a:	68e0      	ldr	r0, [r4, #12]
 c00194c:	4d8e      	ldr	r5, [pc, #568]	; (c001b88 <.text_110>)
 c00194e:	b160      	cbz	r0, c00196a <SOCPS_SleepInit+0x26>
 c001950:	64a8      	str	r0, [r5, #72]	; 0x48
 c001952:	68a0      	ldr	r0, [r4, #8]
 c001954:	498d      	ldr	r1, [pc, #564]	; (c001b8c <.text_111>)
 c001956:	6008      	str	r0, [r1, #0]
 c001958:	2101      	movs	r1, #1
 c00195a:	6820      	ldr	r0, [r4, #0]
 c00195c:	f7ff feee 	bl	c00173c <?Veneer 30 (3) for SOCPS_SetWakeEvent>
 c001960:	6860      	ldr	r0, [r4, #4]
 c001962:	498b      	ldr	r1, [pc, #556]	; (c001b90 <.text_112>)
 c001964:	63c8      	str	r0, [r1, #60]	; 0x3c
 c001966:	b001      	add	sp, #4
 c001968:	bdf0      	pop	{r4, r5, r6, r7, pc}
 c00196a:	6ca8      	ldr	r0, [r5, #72]	; 0x48
 c00196c:	60e0      	str	r0, [r4, #12]
 c00196e:	4989      	ldr	r1, [pc, #548]	; (c001b94 <.text_113>)
 c001970:	2200      	movs	r2, #0
 c001972:	43d2      	mvns	r2, r2
 c001974:	e008      	b.n	c001988 <SOCPS_SleepInit+0x44>
 c001976:	4398      	bics	r0, r3
 c001978:	60e0      	str	r0, [r4, #12]
 c00197a:	e004      	b.n	c001986 <SOCPS_SleepInit+0x42>
 c00197c:	684e      	ldr	r6, [r1, #4]
 c00197e:	2e01      	cmp	r6, #1
 c001980:	d1f9      	bne.n	c001976 <SOCPS_SleepInit+0x32>
 c001982:	4303      	orrs	r3, r0
 c001984:	60e3      	str	r3, [r4, #12]
 c001986:	3108      	adds	r1, #8
 c001988:	68e0      	ldr	r0, [r4, #12]
 c00198a:	680b      	ldr	r3, [r1, #0]
 c00198c:	4293      	cmp	r3, r2
 c00198e:	d1f5      	bne.n	c00197c <SOCPS_SleepInit+0x38>
 c001990:	0641      	lsls	r1, r0, #25
 c001992:	d409      	bmi.n	c0019a8 <SOCPS_SleepInit+0x64>
 c001994:	2180      	movs	r1, #128	; 0x80
 c001996:	0249      	lsls	r1, r1, #9
 c001998:	4301      	orrs	r1, r0
 c00199a:	60e1      	str	r1, [r4, #12]
 c00199c:	68e0      	ldr	r0, [r4, #12]
 c00199e:	0581      	lsls	r1, r0, #22
 c0019a0:	d505      	bpl.n	c0019ae <SOCPS_SleepInit+0x6a>
 c0019a2:	497d      	ldr	r1, [pc, #500]	; (c001b98 <.text_114>)
 c0019a4:	4001      	ands	r1, r0
 c0019a6:	e005      	b.n	c0019b4 <SOCPS_SleepInit+0x70>
 c0019a8:	497c      	ldr	r1, [pc, #496]	; (c001b9c <.text_115>)
 c0019aa:	4001      	ands	r1, r0
 c0019ac:	e7f5      	b.n	c00199a <SOCPS_SleepInit+0x56>
 c0019ae:	2180      	movs	r1, #128	; 0x80
 c0019b0:	0289      	lsls	r1, r1, #10
 c0019b2:	4301      	orrs	r1, r0
 c0019b4:	60e1      	str	r1, [r4, #12]
 c0019b6:	68e0      	ldr	r0, [r4, #12]
 c0019b8:	64a8      	str	r0, [r5, #72]	; 0x48
 c0019ba:	2600      	movs	r6, #0
 c0019bc:	6026      	str	r6, [r4, #0]
 c0019be:	4978      	ldr	r1, [pc, #480]	; (c001ba0 <.text_116>)
 c0019c0:	4613      	mov	r3, r2
 c0019c2:	e008      	b.n	c0019d6 <SOCPS_SleepInit+0x92>
 c0019c4:	4390      	bics	r0, r2
 c0019c6:	e004      	b.n	c0019d2 <SOCPS_SleepInit+0x8e>
 c0019c8:	684f      	ldr	r7, [r1, #4]
 c0019ca:	2f01      	cmp	r7, #1
 c0019cc:	d1fa      	bne.n	c0019c4 <SOCPS_SleepInit+0x80>
 c0019ce:	4302      	orrs	r2, r0
 c0019d0:	0010      	movs	r0, r2
 c0019d2:	6020      	str	r0, [r4, #0]
 c0019d4:	3108      	adds	r1, #8
 c0019d6:	6820      	ldr	r0, [r4, #0]
 c0019d8:	680a      	ldr	r2, [r1, #0]
 c0019da:	429a      	cmp	r2, r3
 c0019dc:	d1f4      	bne.n	c0019c8 <SOCPS_SleepInit+0x84>
 c0019de:	2101      	movs	r1, #1
 c0019e0:	f7ff feac 	bl	c00173c <?Veneer 30 (3) for SOCPS_SetWakeEvent>
 c0019e4:	6066      	str	r6, [r4, #4]
 c0019e6:	496f      	ldr	r1, [pc, #444]	; (c001ba4 <.text_117>)
 c0019e8:	2300      	movs	r3, #0
 c0019ea:	43db      	mvns	r3, r3
 c0019ec:	e008      	b.n	c001a00 <SOCPS_SleepInit+0xbc>
 c0019ee:	4390      	bics	r0, r2
 c0019f0:	e004      	b.n	c0019fc <SOCPS_SleepInit+0xb8>
 c0019f2:	684f      	ldr	r7, [r1, #4]
 c0019f4:	2f01      	cmp	r7, #1
 c0019f6:	d1fa      	bne.n	c0019ee <SOCPS_SleepInit+0xaa>
 c0019f8:	4302      	orrs	r2, r0
 c0019fa:	0010      	movs	r0, r2
 c0019fc:	6060      	str	r0, [r4, #4]
 c0019fe:	3108      	adds	r1, #8
 c001a00:	6860      	ldr	r0, [r4, #4]
 c001a02:	680a      	ldr	r2, [r1, #0]
 c001a04:	429a      	cmp	r2, r3
 c001a06:	d1f4      	bne.n	c0019f2 <SOCPS_SleepInit+0xae>
 c001a08:	2101      	movs	r1, #1
 c001a0a:	f7ff fa33 	bl	c000e74 <?Veneer 90 (3) for SOCPS_SetWakeEventAON>
 c001a0e:	485f      	ldr	r0, [pc, #380]	; (c001b8c <.text_111>)
 c001a10:	6800      	ldr	r0, [r0, #0]
 c001a12:	60a0      	str	r0, [r4, #8]
 c001a14:	4964      	ldr	r1, [pc, #400]	; (c001ba8 <.text_118>)
 c001a16:	2300      	movs	r3, #0
 c001a18:	43db      	mvns	r3, r3
 c001a1a:	e008      	b.n	c001a2e <SOCPS_SleepInit+0xea>
 c001a1c:	4390      	bics	r0, r2
 c001a1e:	e004      	b.n	c001a2a <SOCPS_SleepInit+0xe6>
 c001a20:	684f      	ldr	r7, [r1, #4]
 c001a22:	2f01      	cmp	r7, #1
 c001a24:	d1fa      	bne.n	c001a1c <SOCPS_SleepInit+0xd8>
 c001a26:	4302      	orrs	r2, r0
 c001a28:	0010      	movs	r0, r2
 c001a2a:	60a0      	str	r0, [r4, #8]
 c001a2c:	3108      	adds	r1, #8
 c001a2e:	68a0      	ldr	r0, [r4, #8]
 c001a30:	680a      	ldr	r2, [r1, #0]
 c001a32:	429a      	cmp	r2, r3
 c001a34:	d1f4      	bne.n	c001a20 <SOCPS_SleepInit+0xdc>
 c001a36:	4955      	ldr	r1, [pc, #340]	; (c001b8c <.text_111>)
 c001a38:	6008      	str	r0, [r1, #0]
 c001a3a:	6828      	ldr	r0, [r5, #0]
 c001a3c:	495b      	ldr	r1, [pc, #364]	; (c001bac <.text_119>)
 c001a3e:	e008      	b.n	c001a52 <SOCPS_SleepInit+0x10e>
 c001a40:	4390      	bics	r0, r2
 c001a42:	e005      	b.n	c001a50 <SOCPS_SleepInit+0x10c>
 c001a44:	684c      	ldr	r4, [r1, #4]
 c001a46:	2c01      	cmp	r4, #1
 c001a48:	d1fa      	bne.n	c001a40 <SOCPS_SleepInit+0xfc>
 c001a4a:	0004      	movs	r4, r0
 c001a4c:	0010      	movs	r0, r2
 c001a4e:	4320      	orrs	r0, r4
 c001a50:	3108      	adds	r1, #8
 c001a52:	680a      	ldr	r2, [r1, #0]
 c001a54:	429a      	cmp	r2, r3
 c001a56:	d1f5      	bne.n	c001a44 <SOCPS_SleepInit+0x100>
 c001a58:	6028      	str	r0, [r5, #0]
 c001a5a:	484d      	ldr	r0, [pc, #308]	; (c001b90 <.text_112>)
 c001a5c:	6801      	ldr	r1, [r0, #0]
 c001a5e:	4a54      	ldr	r2, [pc, #336]	; (c001bb0 <.text_120>)
 c001a60:	e008      	b.n	c001a74 <SOCPS_SleepInit+0x130>
 c001a62:	4399      	bics	r1, r3
 c001a64:	e005      	b.n	c001a72 <SOCPS_SleepInit+0x12e>
 c001a66:	6854      	ldr	r4, [r2, #4]
 c001a68:	2c01      	cmp	r4, #1
 c001a6a:	d1fa      	bne.n	c001a62 <SOCPS_SleepInit+0x11e>
 c001a6c:	000c      	movs	r4, r1
 c001a6e:	0019      	movs	r1, r3
 c001a70:	4321      	orrs	r1, r4
 c001a72:	3208      	adds	r2, #8
 c001a74:	6813      	ldr	r3, [r2, #0]
 c001a76:	2400      	movs	r4, #0
 c001a78:	43e4      	mvns	r4, r4
 c001a7a:	42a3      	cmp	r3, r4
 c001a7c:	d1f3      	bne.n	c001a66 <SOCPS_SleepInit+0x122>
 c001a7e:	6001      	str	r1, [r0, #0]
 c001a80:	f7ff fe64 	bl	c00174c <?Veneer 31 (3) for SOCPS_ClearWakePin>
 c001a84:	4c4b      	ldr	r4, [pc, #300]	; (c001bb4 <.text_121>)
 c001a86:	4d4c      	ldr	r5, [pc, #304]	; (c001bb8 <.text_122>)
 c001a88:	e017      	b.n	c001aba <SOCPS_SleepInit+0x176>
 c001a8a:	2102      	movs	r1, #2
 c001a8c:	e008      	b.n	c001aa0 <SOCPS_SleepInit+0x15c>
 c001a8e:	6869      	ldr	r1, [r5, #4]
 c001a90:	2901      	cmp	r1, #1
 c001a92:	d10f      	bne.n	c001ab4 <SOCPS_SleepInit+0x170>
 c001a94:	1827      	adds	r7, r4, r0
 c001a96:	7838      	ldrb	r0, [r7, #0]
 c001a98:	68a9      	ldr	r1, [r5, #8]
 c001a9a:	2900      	cmp	r1, #0
 c001a9c:	d0f5      	beq.n	c001a8a <SOCPS_SleepInit+0x146>
 c001a9e:	2101      	movs	r1, #1
 c001aa0:	f7ff fe74 	bl	c00178c <?Veneer 81 (3) for PAD_PullCtrl>
 c001aa4:	211f      	movs	r1, #31
 c001aa6:	7838      	ldrb	r0, [r7, #0]
 c001aa8:	f7ff fe80 	bl	c0017ac <?Veneer 91 (3) for Pinmux_Config>
 c001aac:	68a9      	ldr	r1, [r5, #8]
 c001aae:	0030      	movs	r0, r6
 c001ab0:	f7ff fe84 	bl	c0017bc <?Veneer 92 (3) for SOCPS_SetWakepin>
 c001ab4:	1c76      	adds	r6, r6, #1
 c001ab6:	350c      	adds	r5, #12
 c001ab8:	1ce4      	adds	r4, r4, #3
 c001aba:	6828      	ldr	r0, [r5, #0]
 c001abc:	2100      	movs	r1, #0
 c001abe:	43c9      	mvns	r1, r1
 c001ac0:	4288      	cmp	r0, r1
 c001ac2:	d100      	bne.n	c001ac6 <SOCPS_SleepInit+0x182>
 c001ac4:	e74f      	b.n	c001966 <SOCPS_SleepInit+0x22>
 c001ac6:	e7e2      	b.n	c001a8e <SOCPS_SleepInit+0x14a>

0c001ac8 <.text_99>:
 c001ac8:	00089c30 	.word	0x00089c30

0c001acc <.text_100>:
 c001acc:	e000ed08 	.word	0xe000ed08

0c001ad0 <SOCPS_DsleepInit>:
 c001ad0:	b5f8      	push	{r3, r4, r5, r6, r7, lr}
 c001ad2:	2400      	movs	r4, #0
 c001ad4:	2600      	movs	r6, #0
 c001ad6:	2100      	movs	r1, #0
 c001ad8:	2080      	movs	r0, #128	; 0x80
 c001ada:	0580      	lsls	r0, r0, #22
 c001adc:	f7ff fe2e 	bl	c00173c <?Veneer 30 (3) for SOCPS_SetWakeEvent>
 c001ae0:	2700      	movs	r7, #0
 c001ae2:	43ff      	mvns	r7, r7
 c001ae4:	2000      	movs	r0, #0
 c001ae6:	e009      	b.n	c001afc <SOCPS_DsleepInit+0x2c>
 c001ae8:	6809      	ldr	r1, [r1, #0]
 c001aea:	4388      	bics	r0, r1
 c001aec:	e005      	b.n	c001afa <SOCPS_DsleepInit+0x2a>
 c001aee:	684a      	ldr	r2, [r1, #4]
 c001af0:	2a01      	cmp	r2, #1
 c001af2:	d1f9      	bne.n	c001ae8 <SOCPS_DsleepInit+0x18>
 c001af4:	0002      	movs	r2, r0
 c001af6:	6808      	ldr	r0, [r1, #0]
 c001af8:	4310      	orrs	r0, r2
 c001afa:	1c76      	adds	r6, r6, #1
 c001afc:	492f      	ldr	r1, [pc, #188]	; (c001bbc <.text_123>)
 c001afe:	00f2      	lsls	r2, r6, #3
 c001b00:	1889      	adds	r1, r1, r2
 c001b02:	680a      	ldr	r2, [r1, #0]
 c001b04:	42ba      	cmp	r2, r7
 c001b06:	d1f2      	bne.n	c001aee <SOCPS_DsleepInit+0x1e>
 c001b08:	2101      	movs	r1, #1
 c001b0a:	f7ff f9b3 	bl	c000e74 <?Veneer 90 (3) for SOCPS_SetWakeEventAON>
 c001b0e:	f7ff fe1d 	bl	c00174c <?Veneer 31 (3) for SOCPS_ClearWakePin>
 c001b12:	e01a      	b.n	c001b4a <SOCPS_DsleepInit+0x7a>
 c001b14:	2102      	movs	r1, #2
 c001b16:	e00d      	b.n	c001b34 <SOCPS_DsleepInit+0x64>
 c001b18:	6868      	ldr	r0, [r5, #4]
 c001b1a:	2801      	cmp	r0, #1
 c001b1c:	d114      	bne.n	c001b48 <SOCPS_DsleepInit+0x78>
 c001b1e:	6828      	ldr	r0, [r5, #0]
 c001b20:	4924      	ldr	r1, [pc, #144]	; (c001bb4 <.text_121>)
 c001b22:	0062      	lsls	r2, r4, #1
 c001b24:	1912      	adds	r2, r2, r4
 c001b26:	1889      	adds	r1, r1, r2
 c001b28:	180e      	adds	r6, r1, r0
 c001b2a:	7830      	ldrb	r0, [r6, #0]
 c001b2c:	68a9      	ldr	r1, [r5, #8]
 c001b2e:	2900      	cmp	r1, #0
 c001b30:	d0f0      	beq.n	c001b14 <SOCPS_DsleepInit+0x44>
 c001b32:	2101      	movs	r1, #1
 c001b34:	f7ff fe2a 	bl	c00178c <?Veneer 81 (3) for PAD_PullCtrl>
 c001b38:	211f      	movs	r1, #31
 c001b3a:	7830      	ldrb	r0, [r6, #0]
 c001b3c:	f7ff fe36 	bl	c0017ac <?Veneer 91 (3) for Pinmux_Config>
 c001b40:	68a9      	ldr	r1, [r5, #8]
 c001b42:	0020      	movs	r0, r4
 c001b44:	f7ff fe3a 	bl	c0017bc <?Veneer 92 (3) for SOCPS_SetWakepin>
 c001b48:	1c64      	adds	r4, r4, #1
 c001b4a:	481b      	ldr	r0, [pc, #108]	; (c001bb8 <.text_122>)
 c001b4c:	210c      	movs	r1, #12
 c001b4e:	4361      	muls	r1, r4
 c001b50:	1845      	adds	r5, r0, r1
 c001b52:	6828      	ldr	r0, [r5, #0]
 c001b54:	42b8      	cmp	r0, r7
 c001b56:	d1df      	bne.n	c001b18 <SOCPS_DsleepInit+0x48>
 c001b58:	bdf1      	pop	{r0, r4, r5, r6, r7, pc}
	...

0c001b5c <.text_102>:
 c001b5c:	e000ed94 	.word	0xe000ed94

0c001b60 <SOCPS_DsleepWakeStatusSet>:
 c001b60:	4906      	ldr	r1, [pc, #24]	; (c001b7c <.text_107>)
 c001b62:	2801      	cmp	r0, #1
 c001b64:	d000      	beq.n	c001b68 <SOCPS_DsleepWakeStatusSet+0x8>
 c001b66:	2000      	movs	r0, #0
 c001b68:	6008      	str	r0, [r1, #0]
 c001b6a:	4770      	bx	lr

0c001b6c <SOCPS_DsleepWakeStatusGet>:
 c001b6c:	4803      	ldr	r0, [pc, #12]	; (c001b7c <.text_107>)
 c001b6e:	6800      	ldr	r0, [r0, #0]
 c001b70:	4770      	bx	lr
	...

0c001b74 <.text_105>:
 c001b74:	000836ed 	.word	0x000836ed

0c001b78 <.text_106>:
 c001b78:	00083000 	.word	0x00083000

0c001b7c <.text_107>:
 c001b7c:	480002f4 	.word	0x480002f4

0c001b80 <.text_108>:
 c001b80:	00083677 	.word	0x00083677

0c001b84 <.text_109>:
 c001b84:	00089cc4 	.word	0x00089cc4

0c001b88 <.text_110>:
 c001b88:	480002d8 	.word	0x480002d8

0c001b8c <.text_111>:
 c001b8c:	48000b08 	.word	0x48000b08

0c001b90 <.text_112>:
 c001b90:	4800001c 	.word	0x4800001c

0c001b94 <.text_113>:
 c001b94:	00084658 	.word	0x00084658

0c001b98 <.text_114>:
 c001b98:	fffdffff 	.word	0xfffdffff

0c001b9c <.text_115>:
 c001b9c:	fffeffff 	.word	0xfffeffff

0c001ba0 <.text_116>:
 c001ba0:	000843c8 	.word	0x000843c8

0c001ba4 <.text_117>:
 c001ba4:	00084430 	.word	0x00084430

0c001ba8 <.text_118>:
 c001ba8:	000846b0 	.word	0x000846b0

0c001bac <.text_119>:
 c001bac:	00084780 	.word	0x00084780

0c001bb0 <.text_120>:
 c001bb0:	000847f8 	.word	0x000847f8

0c001bb4 <.text_121>:
 c001bb4:	00084598 	.word	0x00084598

0c001bb8 <.text_122>:
 c001bb8:	000845a4 	.word	0x000845a4

0c001bbc <.text_123>:
 c001bbc:	00084560 	.word	0x00084560

0c001bc0 <?Veneer 33 (3) for SOCPS_AudioLDO>:
 c001bc0:	b408      	push	{r3}
 c001bc2:	4b02      	ldr	r3, [pc, #8]	; (c001bcc <?Veneer 33 (3) for SOCPS_AudioLDO+0xc>)
 c001bc4:	469c      	mov	ip, r3
 c001bc6:	bc08      	pop	{r3}
 c001bc8:	4760      	bx	ip
 c001bca:	46c0      	nop			; (mov r8, r8)
 c001bcc:	00083bf3 	.word	0x00083bf3

0c001bd0 <?Veneer 43 (3) for FLASH_ClockSwitch>:
 c001bd0:	b408      	push	{r3}
 c001bd2:	4b02      	ldr	r3, [pc, #8]	; (c001bdc <?Veneer 43 (3) for FLASH_ClockSwitch+0xc>)
 c001bd4:	469c      	mov	ip, r3
 c001bd6:	bc08      	pop	{r3}
 c001bd8:	4760      	bx	ip
 c001bda:	46c0      	nop			; (mov r8, r8)
 c001bdc:	00083129 	.word	0x00083129

0c001be0 <?Veneer 46 (3) for FLASH_Write_Lock>:
 c001be0:	b408      	push	{r3}
 c001be2:	4b02      	ldr	r3, [pc, #8]	; (c001bec <?Veneer 46 (3) for FLASH_Write_Lock+0xc>)
 c001be4:	469c      	mov	ip, r3
 c001be6:	bc08      	pop	{r3}
 c001be8:	4760      	bx	ip
 c001bea:	46c0      	nop			; (mov r8, r8)
 c001bec:	00083079 	.word	0x00083079

0c001bf0 <?Veneer 50 (3) for SOCPS_DeepSleep_RAM>:
 c001bf0:	b408      	push	{r3}
 c001bf2:	4b02      	ldr	r3, [pc, #8]	; (c001bfc <?Veneer 50 (3) for SOCPS_DeepSleep_RAM+0xc>)
 c001bf4:	469c      	mov	ip, r3
 c001bf6:	bc08      	pop	{r3}
 c001bf8:	4760      	bx	ip
 c001bfa:	46c0      	nop			; (mov r8, r8)
 c001bfc:	00083e95 	.word	0x00083e95

0c001c00 <?Veneer 77 (3) for BOOT_ROM_CM4PON>:
 c001c00:	b408      	push	{r3}
 c001c02:	4b02      	ldr	r3, [pc, #8]	; (c001c0c <?Veneer 77 (3) for BOOT_ROM_CM4PON+0xc>)
 c001c04:	469c      	mov	ip, r3
 c001c06:	bc08      	pop	{r3}
 c001c08:	4760      	bx	ip
 c001c0a:	46c0      	nop			; (mov r8, r8)
 c001c0c:	000043f9 	.word	0x000043f9

0c001c10 <?Veneer 78 (3) for LOGUART_GetChar>:
 c001c10:	b408      	push	{r3}
 c001c12:	4b02      	ldr	r3, [pc, #8]	; (c001c1c <?Veneer 78 (3) for LOGUART_GetChar+0xc>)
 c001c14:	469c      	mov	ip, r3
 c001c16:	bc08      	pop	{r3}
 c001c18:	4760      	bx	ip
 c001c1a:	46c0      	nop			; (mov r8, r8)
 c001c1c:	00003221 	.word	0x00003221

0c001c20 <?Veneer 79 (3) for LOGUART_Readable>:
 c001c20:	b408      	push	{r3}
 c001c22:	4b02      	ldr	r3, [pc, #8]	; (c001c2c <?Veneer 79 (3) for LOGUART_Readable+0xc>)
 c001c24:	469c      	mov	ip, r3
 c001c26:	bc08      	pop	{r3}
 c001c28:	4760      	bx	ip
 c001c2a:	46c0      	nop			; (mov r8, r8)
 c001c2c:	00003239 	.word	0x00003239

0c001c30 <?Veneer 80 (3) for FLASH_Write_Unlock>:
 c001c30:	b408      	push	{r3}
 c001c32:	4b02      	ldr	r3, [pc, #8]	; (c001c3c <?Veneer 80 (3) for FLASH_Write_Unlock+0xc>)
 c001c34:	469c      	mov	ip, r3
 c001c36:	bc08      	pop	{r3}
 c001c38:	4760      	bx	ip
 c001c3a:	46c0      	nop			; (mov r8, r8)
 c001c3c:	000830c5 	.word	0x000830c5

0c001c40 <km4_status_on>:
 c001c40:	488c      	ldr	r0, [pc, #560]	; (c001e74 <.text_27>)
 c001c42:	6800      	ldr	r0, [r0, #0]
 c001c44:	2180      	movs	r1, #128	; 0x80
 c001c46:	0249      	lsls	r1, r1, #9
 c001c48:	4008      	ands	r0, r1
 c001c4a:	1e40      	subs	r0, r0, #1
 c001c4c:	4180      	sbcs	r0, r0
 c001c4e:	43c0      	mvns	r0, r0
 c001c50:	0fc0      	lsrs	r0, r0, #31
 c001c52:	4770      	bx	lr

0c001c54 <km4_pm_init>:
 c001c54:	4770      	bx	lr

0c001c56 <km4_boot_on>:
 c001c56:	b580      	push	{r7, lr}
 c001c58:	2003      	movs	r0, #3
 c001c5a:	f7ff fa4f 	bl	c0010fc <pmu_acquire_wakelock>
 c001c5e:	4886      	ldr	r0, [pc, #536]	; (c001e78 <.text_28>)
 c001c60:	6801      	ldr	r1, [r0, #0]
 c001c62:	2280      	movs	r2, #128	; 0x80
 c001c64:	0492      	lsls	r2, r2, #18
 c001c66:	430a      	orrs	r2, r1
 c001c68:	6002      	str	r2, [r0, #0]
 c001c6a:	4884      	ldr	r0, [pc, #528]	; (c001e7c <.text_29>)
 c001c6c:	f7ff ffc8 	bl	c001c00 <?Veneer 77 (3) for BOOT_ROM_CM4PON>
 c001c70:	f000 fa3c 	bl	c0020ec <ipc_table_init>
 c001c74:	bd01      	pop	{r0, pc}
	...

0c001c78 <km4_power_gate>:
 c001c78:	487e      	ldr	r0, [pc, #504]	; (c001e74 <.text_27>)
 c001c7a:	6800      	ldr	r0, [r0, #0]
 c001c7c:	03c0      	lsls	r0, r0, #15
 c001c7e:	d400      	bmi.n	c001c82 <km4_power_gate+0xa>
 c001c80:	4770      	bx	lr
 c001c82:	b580      	push	{r7, lr}
 c001c84:	487e      	ldr	r0, [pc, #504]	; (c001e80 <.text_30>)
 c001c86:	6880      	ldr	r0, [r0, #8]
 c001c88:	0100      	lsls	r0, r0, #4
 c001c8a:	d502      	bpl.n	c001c92 <km4_power_gate+0x1a>
 c001c8c:	a008      	add	r0, pc, #32	; (adr r0, c001cb0 <.text_15>)
 c001c8e:	f7fe fe87 	bl	c0009a0 <?Veneer 23 (3) for DiagPrintf>
 c001c92:	487c      	ldr	r0, [pc, #496]	; (c001e84 <.text_31>)
 c001c94:	6800      	ldr	r0, [r0, #0]
 c001c96:	07c0      	lsls	r0, r0, #31
 c001c98:	d5fb      	bpl.n	c001c92 <km4_power_gate+0x1a>
 c001c9a:	48b0      	ldr	r0, [pc, #704]	; (c001f5c <.text_33>)
 c001c9c:	f7ff ffb0 	bl	c001c00 <?Veneer 77 (3) for BOOT_ROM_CM4PON>
 c001ca0:	2003      	movs	r0, #3
 c001ca2:	f7ff fa32 	bl	c00110a <pmu_release_wakelock>
 c001ca6:	2000      	movs	r0, #0
 c001ca8:	f7ff fa2f 	bl	c00110a <pmu_release_wakelock>
 c001cac:	bd01      	pop	{r0, pc}
	...

0c001cb0 <.text_15>:
 c001cb0:	444f4d5b 	.word	0x444f4d5b
 c001cb4:	5f454c55 	.word	0x5f454c55
 c001cb8:	2d344d4b 	.word	0x2d344d4b
 c001cbc:	4556454c 	.word	0x4556454c
 c001cc0:	4e495f4c 	.word	0x4e495f4c
 c001cc4:	3a5d4f46 	.word	0x3a5d4f46
 c001cc8:	0a47344d 	.word	0x0a47344d
 c001ccc:	00000000 	.word	0x00000000

0c001cd0 <km4_power_wake>:
 c001cd0:	4868      	ldr	r0, [pc, #416]	; (c001e74 <.text_27>)
 c001cd2:	6800      	ldr	r0, [r0, #0]
 c001cd4:	03c0      	lsls	r0, r0, #15
 c001cd6:	d500      	bpl.n	c001cda <km4_power_wake+0xa>
 c001cd8:	4770      	bx	lr
 c001cda:	b500      	push	{lr}
 c001cdc:	b081      	sub	sp, #4
 c001cde:	4868      	ldr	r0, [pc, #416]	; (c001e80 <.text_30>)
 c001ce0:	6880      	ldr	r0, [r0, #8]
 c001ce2:	0100      	lsls	r0, r0, #4
 c001ce4:	d503      	bpl.n	c001cee <km4_power_wake+0x1e>
 c001ce6:	bf00      	nop
 c001ce8:	a0ac      	add	r0, pc, #688	; (adr r0, c001f9c <.text_50>)
 c001cea:	f7fe fe59 	bl	c0009a0 <?Veneer 23 (3) for DiagPrintf>
 c001cee:	2003      	movs	r0, #3
 c001cf0:	f7ff fa04 	bl	c0010fc <pmu_acquire_wakelock>
 c001cf4:	489a      	ldr	r0, [pc, #616]	; (c001f60 <.text_35>)
 c001cf6:	f7ff ff83 	bl	c001c00 <?Veneer 77 (3) for BOOT_ROM_CM4PON>
 c001cfa:	b001      	add	sp, #4
 c001cfc:	bd00      	pop	{pc}
	...

0c001d00 <km4_clock_gate>:
 c001d00:	485c      	ldr	r0, [pc, #368]	; (c001e74 <.text_27>)
 c001d02:	6800      	ldr	r0, [r0, #0]
 c001d04:	03c0      	lsls	r0, r0, #15
 c001d06:	d400      	bmi.n	c001d0a <km4_clock_gate+0xa>
 c001d08:	4770      	bx	lr
 c001d0a:	b538      	push	{r3, r4, r5, lr}
 c001d0c:	2480      	movs	r4, #128	; 0x80
 c001d0e:	0524      	lsls	r4, r4, #20
 c001d10:	4d5b      	ldr	r5, [pc, #364]	; (c001e80 <.text_30>)
 c001d12:	68a8      	ldr	r0, [r5, #8]
 c001d14:	4020      	ands	r0, r4
 c001d16:	d002      	beq.n	c001d1e <km4_clock_gate+0x1e>
 c001d18:	a0a8      	add	r0, pc, #672	; (adr r0, c001fbc <.text_51>)
 c001d1a:	f7fe fe41 	bl	c0009a0 <?Veneer 23 (3) for DiagPrintf>
 c001d1e:	4859      	ldr	r0, [pc, #356]	; (c001e84 <.text_31>)
 c001d20:	6800      	ldr	r0, [r0, #0]
 c001d22:	07c0      	lsls	r0, r0, #31
 c001d24:	d5fb      	bpl.n	c001d1e <km4_clock_gate+0x1e>
 c001d26:	488f      	ldr	r0, [pc, #572]	; (c001f64 <.text_36>)
 c001d28:	f7ff ff6a 	bl	c001c00 <?Veneer 77 (3) for BOOT_ROM_CM4PON>
 c001d2c:	68a8      	ldr	r0, [r5, #8]
 c001d2e:	4004      	ands	r4, r0
 c001d30:	d003      	beq.n	c001d3a <km4_clock_gate+0x3a>
 c001d32:	bf00      	nop
 c001d34:	a0a9      	add	r0, pc, #676	; (adr r0, c001fdc <.text_52>)
 c001d36:	f7fe fe33 	bl	c0009a0 <?Veneer 23 (3) for DiagPrintf>
 c001d3a:	2003      	movs	r0, #3
 c001d3c:	f7ff f9e5 	bl	c00110a <pmu_release_wakelock>
 c001d40:	2000      	movs	r0, #0
 c001d42:	f7ff f9e2 	bl	c00110a <pmu_release_wakelock>
 c001d46:	bd31      	pop	{r0, r4, r5, pc}

0c001d48 <km4_clock_on>:
 c001d48:	484a      	ldr	r0, [pc, #296]	; (c001e74 <.text_27>)
 c001d4a:	6800      	ldr	r0, [r0, #0]
 c001d4c:	03c0      	lsls	r0, r0, #15
 c001d4e:	d500      	bpl.n	c001d52 <km4_clock_on+0xa>
 c001d50:	4770      	bx	lr
 c001d52:	b530      	push	{r4, r5, lr}
 c001d54:	b081      	sub	sp, #4
 c001d56:	2480      	movs	r4, #128	; 0x80
 c001d58:	0524      	lsls	r4, r4, #20
 c001d5a:	4d49      	ldr	r5, [pc, #292]	; (c001e80 <.text_30>)
 c001d5c:	68a8      	ldr	r0, [r5, #8]
 c001d5e:	4020      	ands	r0, r4
 c001d60:	d003      	beq.n	c001d6a <km4_clock_on+0x22>
 c001d62:	bf00      	nop
 c001d64:	a0a5      	add	r0, pc, #660	; (adr r0, c001ffc <.text_53>)
 c001d66:	f7fe fe1b 	bl	c0009a0 <?Veneer 23 (3) for DiagPrintf>
 c001d6a:	2003      	movs	r0, #3
 c001d6c:	f7ff f9c6 	bl	c0010fc <pmu_acquire_wakelock>
 c001d70:	487d      	ldr	r0, [pc, #500]	; (c001f68 <.text_37>)
 c001d72:	f7ff ff45 	bl	c001c00 <?Veneer 77 (3) for BOOT_ROM_CM4PON>
 c001d76:	bf40      	sev
 c001d78:	68a8      	ldr	r0, [r5, #8]
 c001d7a:	4004      	ands	r4, r0
 c001d7c:	d003      	beq.n	c001d86 <km4_clock_on+0x3e>
 c001d7e:	bf00      	nop
 c001d80:	a0a6      	add	r0, pc, #664	; (adr r0, c00201c <.text_54>)
 c001d82:	f7fe fe0d 	bl	c0009a0 <?Veneer 23 (3) for DiagPrintf>
 c001d86:	b001      	add	sp, #4
 c001d88:	bd30      	pop	{r4, r5, pc}

0c001d8a <km4_suspend>:
 c001d8a:	b538      	push	{r3, r4, r5, lr}
 c001d8c:	0004      	movs	r4, r0
 c001d8e:	201f      	movs	r0, #31
 c001d90:	f000 f9f8 	bl	c002184 <ipc_get_message>
 c001d94:	b130      	cbz	r0, c001da4 <km4_suspend+0x1a>
 c001d96:	6845      	ldr	r5, [r0, #4]
 c001d98:	b125      	cbz	r5, c001da4 <km4_suspend+0x1a>
 c001d9a:	f7fe fb4c 	bl	c000436 <xTaskGetTickCount>
 c001d9e:	1940      	adds	r0, r0, r5
 c001da0:	4972      	ldr	r1, [pc, #456]	; (c001f6c <.text_38>)
 c001da2:	6088      	str	r0, [r1, #8]
 c001da4:	2c01      	cmp	r4, #1
 c001da6:	d102      	bne.n	c001dae <km4_suspend+0x24>
 c001da8:	f7ff ffaa 	bl	c001d00 <km4_clock_gate>
 c001dac:	e001      	b.n	c001db2 <km4_suspend+0x28>
 c001dae:	f7ff ff63 	bl	c001c78 <km4_power_gate>
 c001db2:	2001      	movs	r0, #1
 c001db4:	bd32      	pop	{r1, r4, r5, pc}

0c001db6 <km4_wake_event_update>:
 c001db6:	b510      	push	{r4, lr}
 c001db8:	f7fe fb3d 	bl	c000436 <xTaskGetTickCount>
 c001dbc:	4c6b      	ldr	r4, [pc, #428]	; (c001f6c <.text_38>)
 c001dbe:	68a1      	ldr	r1, [r4, #8]
 c001dc0:	4288      	cmp	r0, r1
 c001dc2:	d306      	bcc.n	c001dd2 <km4_wake_event_update+0x1c>
 c001dc4:	68e0      	ldr	r0, [r4, #12]
 c001dc6:	2101      	movs	r1, #1
 c001dc8:	4301      	orrs	r1, r0
 c001dca:	60e1      	str	r1, [r4, #12]
 c001dcc:	2000      	movs	r0, #0
 c001dce:	43c0      	mvns	r0, r0
 c001dd0:	60a0      	str	r0, [r4, #8]
 c001dd2:	4867      	ldr	r0, [pc, #412]	; (c001f70 <.text_39>)
 c001dd4:	f000 fa1c 	bl	c002210 <KeyScan_GetINT>
 c001dd8:	b118      	cbz	r0, c001de2 <km4_wake_event_update+0x2c>
 c001dda:	68e0      	ldr	r0, [r4, #12]
 c001ddc:	2120      	movs	r1, #32
 c001dde:	4301      	orrs	r1, r0
 c001de0:	60e1      	str	r1, [r4, #12]
 c001de2:	4864      	ldr	r0, [pc, #400]	; (c001f74 <.text_40>)
 c001de4:	f000 fa30 	bl	c002248 <CapTouch_GetISR>
 c001de8:	b118      	cbz	r0, c001df2 <km4_wake_event_update+0x3c>
 c001dea:	68e0      	ldr	r0, [r4, #12]
 c001dec:	2140      	movs	r1, #64	; 0x40
 c001dee:	4301      	orrs	r1, r0
 c001df0:	60e1      	str	r1, [r4, #12]
 c001df2:	bd10      	pop	{r4, pc}

0c001df4 <km4_set_wake_event>:
 c001df4:	495d      	ldr	r1, [pc, #372]	; (c001f6c <.text_38>)
 c001df6:	68ca      	ldr	r2, [r1, #12]
 c001df8:	4310      	orrs	r0, r2
 c001dfa:	60c8      	str	r0, [r1, #12]
 c001dfc:	4770      	bx	lr

0c001dfe <km4_get_wake_event>:
 c001dfe:	485b      	ldr	r0, [pc, #364]	; (c001f6c <.text_38>)
 c001e00:	68c0      	ldr	r0, [r0, #12]
 c001e02:	4770      	bx	lr

0c001e04 <km4_resume>:
 c001e04:	b510      	push	{r4, lr}
 c001e06:	481b      	ldr	r0, [pc, #108]	; (c001e74 <.text_27>)
 c001e08:	6800      	ldr	r0, [r0, #0]
 c001e0a:	4c58      	ldr	r4, [pc, #352]	; (c001f6c <.text_38>)
 c001e0c:	03c0      	lsls	r0, r0, #15
 c001e0e:	d410      	bmi.n	c001e32 <km4_resume+0x2e>
 c001e10:	2003      	movs	r0, #3
 c001e12:	f7ff f973 	bl	c0010fc <pmu_acquire_wakelock>
 c001e16:	7820      	ldrb	r0, [r4, #0]
 c001e18:	2801      	cmp	r0, #1
 c001e1a:	d102      	bne.n	c001e22 <km4_resume+0x1e>
 c001e1c:	f7ff ff94 	bl	c001d48 <km4_clock_on>
 c001e20:	e001      	b.n	c001e26 <km4_resume+0x22>
 c001e22:	f7ff ff55 	bl	c001cd0 <km4_power_wake>
 c001e26:	68e0      	ldr	r0, [r4, #12]
 c001e28:	4953      	ldr	r1, [pc, #332]	; (c001f78 <.text_41>)
 c001e2a:	6008      	str	r0, [r1, #0]
 c001e2c:	2001      	movs	r0, #1
 c001e2e:	f7ff fec7 	bl	c001bc0 <?Veneer 33 (3) for SOCPS_AudioLDO>
 c001e32:	2000      	movs	r0, #0
 c001e34:	60e0      	str	r0, [r4, #12]
 c001e36:	bd10      	pop	{r4, pc}

0c001e38 <km4_flash_highspeed_suspend>:
 c001e38:	b500      	push	{lr}
 c001e3a:	b081      	sub	sp, #4
 c001e3c:	0001      	movs	r1, r0
 c001e3e:	f240 2000 	movw	r0, #512	; 0x200
 c001e42:	f7ff fec5 	bl	c001bd0 <?Veneer 43 (3) for FLASH_ClockSwitch>
 c001e46:	484d      	ldr	r0, [pc, #308]	; (c001f7c <.text_42>)
 c001e48:	f7ff feda 	bl	c001c00 <?Veneer 77 (3) for BOOT_ROM_CM4PON>
 c001e4c:	b001      	add	sp, #4
 c001e4e:	bd00      	pop	{pc}

0c001e50 <km4_flash_highspeed_init>:
 c001e50:	b580      	push	{r7, lr}
 c001e52:	484b      	ldr	r0, [pc, #300]	; (c001f80 <.text_43>)
 c001e54:	f7ff fed4 	bl	c001c00 <?Veneer 77 (3) for BOOT_ROM_CM4PON>
 c001e58:	f000 fe92 	bl	c002b80 <flash_operation_config>
 c001e5c:	bd01      	pop	{r0, pc}

0c001e5e <km4_flash_highspeed_resume>:
 c001e5e:	b510      	push	{r4, lr}
 c001e60:	0004      	movs	r4, r0
 c001e62:	4847      	ldr	r0, [pc, #284]	; (c001f80 <.text_43>)
 c001e64:	f7ff fecc 	bl	c001c00 <?Veneer 77 (3) for BOOT_ROM_CM4PON>
 c001e68:	0021      	movs	r1, r4
 c001e6a:	f240 4000 	movw	r0, #1024	; 0x400
 c001e6e:	f7ff feaf 	bl	c001bd0 <?Veneer 43 (3) for FLASH_ClockSwitch>
 c001e72:	bd10      	pop	{r4, pc}

0c001e74 <.text_27>:
 c001e74:	4800021c 	.word	0x4800021c

0c001e78 <.text_28>:
 c001e78:	480003f8 	.word	0x480003f8

0c001e7c <.text_29>:
 c001e7c:	000840c8 	.word	0x000840c8

0c001e80 <.text_30>:
 c001e80:	000801cc 	.word	0x000801cc

0c001e84 <.text_31>:
 c001e84:	4000000c 	.word	0x4000000c

0c001e88 <km4_tickless_ipc_int>:
 c001e88:	b538      	push	{r3, r4, r5, lr}
 c001e8a:	2408      	movs	r4, #8
 c001e8c:	483d      	ldr	r0, [pc, #244]	; (c001f84 <.text_44>)
 c001e8e:	6004      	str	r4, [r0, #0]
 c001e90:	e002      	b.n	c001e98 <km4_tickless_ipc_int+0x10>
 c001e92:	2000      	movs	r0, #0
 c001e94:	f7ff febc 	bl	c001c10 <?Veneer 78 (3) for LOGUART_GetChar>
 c001e98:	f7ff fec2 	bl	c001c20 <?Veneer 79 (3) for LOGUART_Readable>
 c001e9c:	2800      	cmp	r0, #0
 c001e9e:	d1f8      	bne.n	c001e92 <km4_tickless_ipc_int+0xa>
 c001ea0:	2003      	movs	r0, #3
 c001ea2:	f7ff fc6b 	bl	c00177c <?Veneer 41 (3) for irq_enable>
 c001ea6:	2000      	movs	r0, #0
 c001ea8:	4937      	ldr	r1, [pc, #220]	; (c001f88 <.text_45>)
 c001eaa:	6008      	str	r0, [r1, #0]
 c001eac:	201f      	movs	r0, #31
 c001eae:	f000 f969 	bl	c002184 <ipc_get_message>
 c001eb2:	0005      	movs	r5, r0
 c001eb4:	0001      	movs	r1, r0
 c001eb6:	4a35      	ldr	r2, [pc, #212]	; (c001f8c <.text_46>)
 c001eb8:	6812      	ldr	r2, [r2, #0]
 c001eba:	03d2      	lsls	r2, r2, #15
 c001ebc:	d515      	bpl.n	c001eea <km4_tickless_ipc_int+0x62>
 c001ebe:	06ca      	lsls	r2, r1, #27
 c001ec0:	d006      	beq.n	c001ed0 <km4_tickless_ipc_int+0x48>
 c001ec2:	0941      	lsrs	r1, r0, #5
 c001ec4:	0149      	lsls	r1, r1, #5
 c001ec6:	1dc0      	adds	r0, r0, #7
 c001ec8:	0940      	lsrs	r0, r0, #5
 c001eca:	1c40      	adds	r0, r0, #1
 c001ecc:	0140      	lsls	r0, r0, #5
 c001ece:	1a44      	subs	r4, r0, r1
 c001ed0:	f3bf 8f4f 	dsb	sy
 c001ed4:	482e      	ldr	r0, [pc, #184]	; (c001f90 <.text_47>)
 c001ed6:	e002      	b.n	c001ede <km4_tickless_ipc_int+0x56>
 c001ed8:	6001      	str	r1, [r0, #0]
 c001eda:	3120      	adds	r1, #32
 c001edc:	3c20      	subs	r4, #32
 c001ede:	2c01      	cmp	r4, #1
 c001ee0:	dafa      	bge.n	c001ed8 <km4_tickless_ipc_int+0x50>
 c001ee2:	f3bf 8f4f 	dsb	sy
 c001ee6:	f3bf 8f6f 	isb	sy
 c001eea:	7828      	ldrb	r0, [r5, #0]
 c001eec:	b178      	cbz	r0, c001f0e <km4_tickless_ipc_int+0x86>
 c001eee:	2000      	movs	r0, #0
 c001ef0:	f7fe ffa8 	bl	c000e44 <?Veneer 29 (3) for SOCPS_AONTimerCmd>
 c001ef4:	6868      	ldr	r0, [r5, #4]
 c001ef6:	b120      	cbz	r0, c001f02 <km4_tickless_ipc_int+0x7a>
 c001ef8:	f7fe ffb4 	bl	c000e64 <?Veneer 49 (3) for SOCPS_AONTimer>
 c001efc:	2001      	movs	r0, #1
 c001efe:	f7fe ffa1 	bl	c000e44 <?Veneer 29 (3) for SOCPS_AONTimerCmd>
 c001f02:	f7ff fe6d 	bl	c001be0 <?Veneer 46 (3) for FLASH_Write_Lock>
 c001f06:	f7ff fe73 	bl	c001bf0 <?Veneer 50 (3) for SOCPS_DeepSleep_RAM>
 c001f0a:	f7ff fe91 	bl	c001c30 <?Veneer 80 (3) for FLASH_Write_Unlock>
 c001f0e:	4c17      	ldr	r4, [pc, #92]	; (c001f6c <.text_38>)
 c001f10:	7868      	ldrb	r0, [r5, #1]
 c001f12:	7020      	strb	r0, [r4, #0]
 c001f14:	7868      	ldrb	r0, [r5, #1]
 c001f16:	b110      	cbz	r0, c001f1e <km4_tickless_ipc_int+0x96>
 c001f18:	2801      	cmp	r0, #1
 c001f1a:	d00b      	beq.n	c001f34 <km4_tickless_ipc_int+0xac>
 c001f1c:	e012      	b.n	c001f44 <km4_tickless_ipc_int+0xbc>
 c001f1e:	f7ff ff34 	bl	c001d8a <km4_suspend>
 c001f22:	2801      	cmp	r0, #1
 c001f24:	d115      	bne.n	c001f52 <km4_tickless_ipc_int+0xca>
 c001f26:	481b      	ldr	r0, [pc, #108]	; (c001f94 <.text_48>)
 c001f28:	6801      	ldr	r1, [r0, #0]
 c001f2a:	2280      	movs	r2, #128	; 0x80
 c001f2c:	0452      	lsls	r2, r2, #17
 c001f2e:	430a      	orrs	r2, r1
 c001f30:	6002      	str	r2, [r0, #0]
 c001f32:	e00e      	b.n	c001f52 <km4_tickless_ipc_int+0xca>
 c001f34:	f7ff ff29 	bl	c001d8a <km4_suspend>
 c001f38:	2801      	cmp	r0, #1
 c001f3a:	d10a      	bne.n	c001f52 <km4_tickless_ipc_int+0xca>
 c001f3c:	2002      	movs	r0, #2
 c001f3e:	f7fe ffe8 	bl	c000f12 <pmu_set_sysactive_time>
 c001f42:	e006      	b.n	c001f52 <km4_tickless_ipc_int+0xca>
 c001f44:	4814      	ldr	r0, [pc, #80]	; (c001f98 <.text_49>)
 c001f46:	6800      	ldr	r0, [r0, #0]
 c001f48:	0380      	lsls	r0, r0, #14
 c001f4a:	d502      	bpl.n	c001f52 <km4_tickless_ipc_int+0xca>
 c001f4c:	a03b      	add	r0, pc, #236	; (adr r0, c00203c <.text_55>)
 c001f4e:	f7fe fd27 	bl	c0009a0 <?Veneer 23 (3) for DiagPrintf>
 c001f52:	f7fe ff6f 	bl	c000e34 <?Veneer 21 (3) for SYSTIMER_TickGet>
 c001f56:	6060      	str	r0, [r4, #4]
 c001f58:	bd31      	pop	{r0, r4, r5, pc}
	...

0c001f5c <.text_33>:
 c001f5c:	00084298 	.word	0x00084298

0c001f60 <.text_35>:
 c001f60:	00084308 	.word	0x00084308

0c001f64 <.text_36>:
 c001f64:	000841d8 	.word	0x000841d8

0c001f68 <.text_37>:
 c001f68:	00084238 	.word	0x00084238

0c001f6c <.text_38>:
 c001f6c:	00083fa8 	.word	0x00083fa8

0c001f70 <.text_39>:
 c001f70:	4800a000 	.word	0x4800a000

0c001f74 <.text_40>:
 c001f74:	4801c000 	.word	0x4801c000

0c001f78 <.text_41>:
 c001f78:	4000012c 	.word	0x4000012c

0c001f7c <.text_42>:
 c001f7c:	00084078 	.word	0x00084078

0c001f80 <.text_43>:
 c001f80:	00083fb8 	.word	0x00083fb8

0c001f84 <.text_44>:
 c001f84:	e000e280 	.word	0xe000e280

0c001f88 <.text_45>:
 c001f88:	48006020 	.word	0x48006020

0c001f8c <.text_46>:
 c001f8c:	e000ed14 	.word	0xe000ed14

0c001f90 <.text_47>:
 c001f90:	e000ef5c 	.word	0xe000ef5c

0c001f94 <.text_48>:
 c001f94:	480003f8 	.word	0x480003f8

0c001f98 <.text_49>:
 c001f98:	000801cc 	.word	0x000801cc

0c001f9c <.text_50>:
 c001f9c:	444f4d5b 	.word	0x444f4d5b
 c001fa0:	5f454c55 	.word	0x5f454c55
 c001fa4:	2d344d4b 	.word	0x2d344d4b
 c001fa8:	4556454c 	.word	0x4556454c
 c001fac:	4e495f4c 	.word	0x4e495f4c
 c001fb0:	3a5d4f46 	.word	0x3a5d4f46
 c001fb4:	0a57344d 	.word	0x0a57344d
 c001fb8:	00000000 	.word	0x00000000

0c001fbc <.text_51>:
 c001fbc:	444f4d5b 	.word	0x444f4d5b
 c001fc0:	5f454c55 	.word	0x5f454c55
 c001fc4:	2d344d4b 	.word	0x2d344d4b
 c001fc8:	4556454c 	.word	0x4556454c
 c001fcc:	4e495f4c 	.word	0x4e495f4c
 c001fd0:	3a5d4f46 	.word	0x3a5d4f46
 c001fd4:	4743344d 	.word	0x4743344d
 c001fd8:	0000000a 	.word	0x0000000a

0c001fdc <.text_52>:
 c001fdc:	444f4d5b 	.word	0x444f4d5b
 c001fe0:	5f454c55 	.word	0x5f454c55
 c001fe4:	2d344d4b 	.word	0x2d344d4b
 c001fe8:	4556454c 	.word	0x4556454c
 c001fec:	4e495f4c 	.word	0x4e495f4c
 c001ff0:	3a5d4f46 	.word	0x3a5d4f46
 c001ff4:	4743344d 	.word	0x4743344d
 c001ff8:	00000a2d 	.word	0x00000a2d

0c001ffc <.text_53>:
 c001ffc:	444f4d5b 	.word	0x444f4d5b
 c002000:	5f454c55 	.word	0x5f454c55
 c002004:	2d344d4b 	.word	0x2d344d4b
 c002008:	4556454c 	.word	0x4556454c
 c00200c:	4e495f4c 	.word	0x4e495f4c
 c002010:	3a5d4f46 	.word	0x3a5d4f46
 c002014:	5743344d 	.word	0x5743344d
